Archive member included because of file (symbol)

../../PLIB2_GIT/PLIB.X/dist/default/production/PLIB.X.a(_EXAMPLES_.o)
                              build/default/production/_ext/1472/main.o (_EXAMPLE_TPS92662)
../../PLIB2_GIT/PLIB.X/dist/default/production/PLIB.X.a(_LOG.o)
                              build/default/production/_ext/1472/main.o (log_init)
../../PLIB2_GIT/PLIB.X/dist/default/production/PLIB.X.a(pink_lady.o)
                              ../../PLIB2_GIT/PLIB.X/dist/default/production/PLIB.X.a(_EXAMPLES_.o) (pink_lady_deamon)
../../PLIB2_GIT/PLIB.X/dist/default/production/PLIB.X.a(sd_card.o)
                              ../../PLIB2_GIT/PLIB.X/dist/default/production/PLIB.X.a(_EXAMPLES_.o) (sd_card_deamon)
../../PLIB2_GIT/PLIB.X/dist/default/production/PLIB.X.a(e_mcp23s17.o)
                              ../../PLIB2_GIT/PLIB.X/dist/default/production/PLIB.X.a(_EXAMPLES_.o) (e_mcp23s17_deamon)
../../PLIB2_GIT/PLIB.X/dist/default/production/PLIB.X.a(e_at42qt2120.o)
                              ../../PLIB2_GIT/PLIB.X/dist/default/production/PLIB.X.a(_EXAMPLES_.o) (e_at42qt2120_deamon)
../../PLIB2_GIT/PLIB.X/dist/default/production/PLIB.X.a(e_pca9685.o)
                              ../../PLIB2_GIT/PLIB.X/dist/default/production/PLIB.X.a(_EXAMPLES_.o) (e_pca9685_deamon)
../../PLIB2_GIT/PLIB.X/dist/default/production/PLIB.X.a(e_veml7700.o)
                              ../../PLIB2_GIT/PLIB.X/dist/default/production/PLIB.X.a(_EXAMPLES_.o) (e_veml7700_deamon)
../../PLIB2_GIT/PLIB.X/dist/default/production/PLIB.X.a(e_tps92662.o)
                              ../../PLIB2_GIT/PLIB.X/dist/default/production/PLIB.X.a(_EXAMPLES_.o) (e_tps92662_deamon)
../../PLIB2_GIT/PLIB.X/dist/default/production/PLIB.X.a(e_grove_motor_tb6612fng.o)
                              ../../PLIB2_GIT/PLIB.X/dist/default/production/PLIB.X.a(_EXAMPLES_.o) (e_grove_motor_tb6612fng_deamon)
../../PLIB2_GIT/PLIB.X/dist/default/production/PLIB.X.a(ble.o)
                              build/default/production/_ext/1472/main.o (ble_init)
../../PLIB2_GIT/PLIB.X/dist/default/production/PLIB.X.a(utilities.o)
                              ../../PLIB2_GIT/PLIB.X/dist/default/production/PLIB.X.a(_EXAMPLES_.o) (fu_switch)
../../PLIB2_GIT/PLIB.X/dist/default/production/PLIB.X.a(string_advance.o)
                              ../../PLIB2_GIT/PLIB.X/dist/default/production/PLIB.X.a(_EXAMPLES_.o) (transform_uint8_t_tab_to_string)
../../PLIB2_GIT/PLIB.X/dist/default/production/PLIB.X.a(lin.o)
                              ../../PLIB2_GIT/PLIB.X/dist/default/production/PLIB.X.a(_EXAMPLES_.o) (lin_master_deamon)
../../PLIB2_GIT/PLIB.X/dist/default/production/PLIB.X.a(software_pwm.o)
                              ../../PLIB2_GIT/PLIB.X/dist/default/production/PLIB.X.a(_EXAMPLES_.o) (software_pwm_init)
../../PLIB2_GIT/PLIB.X/dist/default/production/PLIB.X.a(crc_16.o)
                              ../../PLIB2_GIT/PLIB.X/dist/default/production/PLIB.X.a(_EXAMPLES_.o) (crc16_fast_poly_0x8005)
../../PLIB2_GIT/PLIB.X/dist/default/production/PLIB.X.a(errors.o)
                              ../../PLIB2_GIT/PLIB.X/dist/default/production/PLIB.X.a(e_grove_motor_tb6612fng.o) (__errors)
../../PLIB2_GIT/PLIB.X/dist/default/production/PLIB.X.a(s14_timers.o)
                              ../../PLIB2_GIT/PLIB.X/dist/default/production/PLIB.X.a(_EXAMPLES_.o) (timer_init_2345_us)
../../PLIB2_GIT/PLIB.X/dist/default/production/PLIB.X.a(s23_spi.o)
                              ../../PLIB2_GIT/PLIB.X/dist/default/production/PLIB.X.a(_EXAMPLES_.o) (spi_init)
../../PLIB2_GIT/PLIB.X/dist/default/production/PLIB.X.a(s17_adc.o)
                              build/default/production/_ext/1472/config.o (adc10_init)
../../PLIB2_GIT/PLIB.X/dist/default/production/PLIB.X.a(s16_output_compare.o)
                              build/default/production/_ext/1472/main.o (pwm_init)
../../PLIB2_GIT/PLIB.X/dist/default/production/PLIB.X.a(s24_i2c.o)
                              ../../PLIB2_GIT/PLIB.X/dist/default/production/PLIB.X.a(e_at42qt2120.o) (i2c_init_as_master)
../../PLIB2_GIT/PLIB.X/dist/default/production/PLIB.X.a(s12_ports.o)
                              build/default/production/_ext/1472/config.o (ports_change_notice_init)
../../PLIB2_GIT/PLIB.X/dist/default/production/PLIB.X.a(s21_uart.o)
                              ../../PLIB2_GIT/PLIB.X/dist/default/production/PLIB.X.a(_EXAMPLES_.o) (uart_init)
../../PLIB2_GIT/PLIB.X/dist/default/production/PLIB.X.a(s31_dma.o)
                              ../../PLIB2_GIT/PLIB.X/dist/default/production/PLIB.X.a(_EXAMPLES_.o) (dma_init)
../../PLIB2_GIT/PLIB.X/dist/default/production/PLIB.X.a(s07_resets.o)
                              ../../PLIB2_GIT/PLIB.X/dist/default/production/PLIB.X.a(ble.o) (software_reset)
../../PLIB2_GIT/PLIB.X/dist/default/production/PLIB.X.a(s08_interrupts.o)
                              build/default/production/_ext/1472/config.o (irq_link_data_priority)
../../PLIB2_GIT/PLIB.X/dist/default/production/PLIB.X.a(s00_system.o)
                              build/default/production/_ext/1472/config.o (system_config_performance)
../../PLIB2_GIT/PLIB.X/dist/default/production/PLIB.X.a(s34_can.o)
                              ../../PLIB2_GIT/PLIB.X/dist/default/production/PLIB.X.a(_EXAMPLES_.o) (can_tasks)

Optional file libmchp_peripheral.a not found

Optional file libmchp_peripheral_32MX795F512L.a not found
/Applications/microchip/xc32/v2.41/bin/bin/../../lib/gcc/pic32mx/4.8.3/speed/libgcc.a(_floatundisf.o)
                              ../../PLIB2_GIT/PLIB.X/dist/default/production/PLIB.X.a(_EXAMPLES_.o) (__floatundisf)
/Applications/microchip/xc32/v2.41/bin/bin/../../lib/gcc/pic32mx/4.8.3/speed/libgcc.a(_udivdi3.o)
                              build/default/production/_ext/1472/main.o (__udivdi3)
/Applications/microchip/xc32/v2.41/bin/bin/../../lib/gcc/pic32mx/4.8.3/speed/libgcc.a(_umoddi3.o)
                              ../../PLIB2_GIT/PLIB.X/dist/default/production/PLIB.X.a(_LOG.o) (__umoddi3)
/Applications/microchip/xc32/v2.41/bin/bin/../../lib/gcc/pic32mx/4.8.3/speed/libgcc.a(floatunsisf.o)
                              ../../PLIB2_GIT/PLIB.X/dist/default/production/PLIB.X.a(utilities.o) (__floatunsisf)
/Applications/microchip/xc32/v2.41/bin/bin/../../lib/gcc/pic32mx/4.8.3/speed/libgcc.a(floatunsidf.o)
                              ../../PLIB2_GIT/PLIB.X/dist/default/production/PLIB.X.a(sd_card.o) (__floatunsidf)
/Applications/microchip/xc32/v2.41/bin/bin/../../lib/gcc/pic32mx/4.8.3/../../../../pic32mx/lib/speed/libpic32.a(memcpy.o)
                              ../../PLIB2_GIT/PLIB.X/dist/default/production/PLIB.X.a(pink_lady.o) (memcpy)
/Applications/microchip/xc32/v2.41/bin/bin/../../lib/gcc/pic32mx/4.8.3/../../../../pic32mx/lib/speed/libpic32.a(memset.o)
                              ../../PLIB2_GIT/PLIB.X/dist/default/production/PLIB.X.a(_EXAMPLES_.o) (memset)
/Applications/microchip/xc32/v2.41/bin/bin/../../lib/gcc/pic32mx/4.8.3/../../../../pic32mx/lib/speed/libpic32.a(strcmp.o)
                              ../../PLIB2_GIT/PLIB.X/dist/default/production/PLIB.X.a(sd_card.o) (strcmp)
/Applications/microchip/xc32/v2.41/bin/bin/../../lib/gcc/pic32mx/4.8.3/../../../../pic32mx/lib/speed/libpic32.a(strlen.o)
                              ../../PLIB2_GIT/PLIB.X/dist/default/production/PLIB.X.a(string_advance.o) (strlen)
/Applications/microchip/xc32/v2.41/bin/bin/../../lib/gcc/pic32mx/4.8.3/../../../../pic32mx/lib/speed/libpic32.a(default-bootstrap-exception-handler.o)
                              /var/folders/nb/nscgpnq50m3_t2k_4gt8dg080000gn/T//cckU0PY8.o (_bootstrap_exception_handler)
/Applications/microchip/xc32/v2.41/bin/bin/../../lib/gcc/pic32mx/4.8.3/../../../../pic32mx/lib/speed/libpic32.a(default-on-reset.o)
                              /var/folders/nb/nscgpnq50m3_t2k_4gt8dg080000gn/T//cckU0PY8.o (_on_reset)
/Applications/microchip/xc32/v2.41/bin/bin/../../lib/gcc/pic32mx/4.8.3/../../../../pic32mx/lib/speed/libpic32.a(default-on-bootstrap.o)
                              /var/folders/nb/nscgpnq50m3_t2k_4gt8dg080000gn/T//cckU0PY8.o (_on_bootstrap)
/Applications/microchip/xc32/v2.41/bin/bin/../../lib/gcc/pic32mx/4.8.3/../../../../pic32mx/lib/speed/libpic32.a(default-nmi-handler.o)
                              /var/folders/nb/nscgpnq50m3_t2k_4gt8dg080000gn/T//cckU0PY8.o (_nmi_handler)
/Applications/microchip/xc32/v2.41/bin/bin/../../lib/gcc/pic32mx/4.8.3/../../../../pic32mx/lib/speed/libpic32.a(pic32_data_init.o)
                              /var/folders/nb/nscgpnq50m3_t2k_4gt8dg080000gn/T//cckU0PY8.o (__pic32_data_init)
/Applications/microchip/xc32/v2.41/bin/bin/../../lib/gcc/pic32mx/4.8.3/../../../../pic32mx/lib/speed/libpic32.a(general-exception.o)
                              /var/folders/nb/nscgpnq50m3_t2k_4gt8dg080000gn/T//cckU0PY8.o (_general_exception_context)
/Applications/microchip/xc32/v2.41/bin/bin/../../lib/gcc/pic32mx/4.8.3/../../../../pic32mx/lib/speed/libpic32.a(vector0.o)
                              /var/folders/nb/nscgpnq50m3_t2k_4gt8dg080000gn/T//ccoIGrQV.o (__vector_dispatch_0)
/Applications/microchip/xc32/v2.41/bin/bin/../../lib/gcc/pic32mx/4.8.3/../../../../pic32mx/lib/speed/libpic32.a(vector1.o)
                              /var/folders/nb/nscgpnq50m3_t2k_4gt8dg080000gn/T//ccoIGrQV.o (__vector_dispatch_1)
/Applications/microchip/xc32/v2.41/bin/bin/../../lib/gcc/pic32mx/4.8.3/../../../../pic32mx/lib/speed/libpic32.a(vector2.o)
                              /var/folders/nb/nscgpnq50m3_t2k_4gt8dg080000gn/T//ccoIGrQV.o (__vector_dispatch_2)
/Applications/microchip/xc32/v2.41/bin/bin/../../lib/gcc/pic32mx/4.8.3/../../../../pic32mx/lib/speed/libpic32.a(vector3.o)
                              /var/folders/nb/nscgpnq50m3_t2k_4gt8dg080000gn/T//ccoIGrQV.o (__vector_dispatch_3)
/Applications/microchip/xc32/v2.41/bin/bin/../../lib/gcc/pic32mx/4.8.3/../../../../pic32mx/lib/speed/libpic32.a(vector5.o)
                              /var/folders/nb/nscgpnq50m3_t2k_4gt8dg080000gn/T//ccoIGrQV.o (__vector_dispatch_5)
/Applications/microchip/xc32/v2.41/bin/bin/../../lib/gcc/pic32mx/4.8.3/../../../../pic32mx/lib/speed/libpic32.a(vector6.o)
                              /var/folders/nb/nscgpnq50m3_t2k_4gt8dg080000gn/T//ccoIGrQV.o (__vector_dispatch_6)
/Applications/microchip/xc32/v2.41/bin/bin/../../lib/gcc/pic32mx/4.8.3/../../../../pic32mx/lib/speed/libpic32.a(vector7.o)
                              /var/folders/nb/nscgpnq50m3_t2k_4gt8dg080000gn/T//ccoIGrQV.o (__vector_dispatch_7)
/Applications/microchip/xc32/v2.41/bin/bin/../../lib/gcc/pic32mx/4.8.3/../../../../pic32mx/lib/speed/libpic32.a(vector9.o)
                              /var/folders/nb/nscgpnq50m3_t2k_4gt8dg080000gn/T//ccoIGrQV.o (__vector_dispatch_9)
/Applications/microchip/xc32/v2.41/bin/bin/../../lib/gcc/pic32mx/4.8.3/../../../../pic32mx/lib/speed/libpic32.a(vector10.o)
                              /var/folders/nb/nscgpnq50m3_t2k_4gt8dg080000gn/T//ccoIGrQV.o (__vector_dispatch_10)
/Applications/microchip/xc32/v2.41/bin/bin/../../lib/gcc/pic32mx/4.8.3/../../../../pic32mx/lib/speed/libpic32.a(vector11.o)
                              /var/folders/nb/nscgpnq50m3_t2k_4gt8dg080000gn/T//ccoIGrQV.o (__vector_dispatch_11)
/Applications/microchip/xc32/v2.41/bin/bin/../../lib/gcc/pic32mx/4.8.3/../../../../pic32mx/lib/speed/libpic32.a(vector13.o)
                              /var/folders/nb/nscgpnq50m3_t2k_4gt8dg080000gn/T//ccoIGrQV.o (__vector_dispatch_13)
/Applications/microchip/xc32/v2.41/bin/bin/../../lib/gcc/pic32mx/4.8.3/../../../../pic32mx/lib/speed/libpic32.a(vector14.o)
                              /var/folders/nb/nscgpnq50m3_t2k_4gt8dg080000gn/T//ccoIGrQV.o (__vector_dispatch_14)
/Applications/microchip/xc32/v2.41/bin/bin/../../lib/gcc/pic32mx/4.8.3/../../../../pic32mx/lib/speed/libpic32.a(vector15.o)
                              /var/folders/nb/nscgpnq50m3_t2k_4gt8dg080000gn/T//ccoIGrQV.o (__vector_dispatch_15)
/Applications/microchip/xc32/v2.41/bin/bin/../../lib/gcc/pic32mx/4.8.3/../../../../pic32mx/lib/speed/libpic32.a(vector17.o)
                              /var/folders/nb/nscgpnq50m3_t2k_4gt8dg080000gn/T//ccoIGrQV.o (__vector_dispatch_17)
/Applications/microchip/xc32/v2.41/bin/bin/../../lib/gcc/pic32mx/4.8.3/../../../../pic32mx/lib/speed/libpic32.a(vector18.o)
                              /var/folders/nb/nscgpnq50m3_t2k_4gt8dg080000gn/T//ccoIGrQV.o (__vector_dispatch_18)
/Applications/microchip/xc32/v2.41/bin/bin/../../lib/gcc/pic32mx/4.8.3/../../../../pic32mx/lib/speed/libpic32.a(vector19.o)
                              /var/folders/nb/nscgpnq50m3_t2k_4gt8dg080000gn/T//ccoIGrQV.o (__vector_dispatch_19)
/Applications/microchip/xc32/v2.41/bin/bin/../../lib/gcc/pic32mx/4.8.3/../../../../pic32mx/lib/speed/libpic32.a(vector21.o)
                              /var/folders/nb/nscgpnq50m3_t2k_4gt8dg080000gn/T//ccoIGrQV.o (__vector_dispatch_21)
/Applications/microchip/xc32/v2.41/bin/bin/../../lib/gcc/pic32mx/4.8.3/../../../../pic32mx/lib/speed/libpic32.a(vector22.o)
                              /var/folders/nb/nscgpnq50m3_t2k_4gt8dg080000gn/T//ccoIGrQV.o (__vector_dispatch_22)
/Applications/microchip/xc32/v2.41/bin/bin/../../lib/gcc/pic32mx/4.8.3/../../../../pic32mx/lib/speed/libpic32.a(vector28.o)
                              /var/folders/nb/nscgpnq50m3_t2k_4gt8dg080000gn/T//ccoIGrQV.o (__vector_dispatch_28)
/Applications/microchip/xc32/v2.41/bin/bin/../../lib/gcc/pic32mx/4.8.3/../../../../pic32mx/lib/speed/libpic32.a(vector29.o)
                              /var/folders/nb/nscgpnq50m3_t2k_4gt8dg080000gn/T//ccoIGrQV.o (__vector_dispatch_29)
/Applications/microchip/xc32/v2.41/bin/bin/../../lib/gcc/pic32mx/4.8.3/../../../../pic32mx/lib/speed/libpic32.a(vector30.o)
                              /var/folders/nb/nscgpnq50m3_t2k_4gt8dg080000gn/T//ccoIGrQV.o (__vector_dispatch_30)
/Applications/microchip/xc32/v2.41/bin/bin/../../lib/gcc/pic32mx/4.8.3/../../../../pic32mx/lib/speed/libpic32.a(vector34.o)
                              /var/folders/nb/nscgpnq50m3_t2k_4gt8dg080000gn/T//ccoIGrQV.o (__vector_dispatch_34)
/Applications/microchip/xc32/v2.41/bin/bin/../../lib/gcc/pic32mx/4.8.3/../../../../pic32mx/lib/speed/libpic32.a(vector35.o)
                              /var/folders/nb/nscgpnq50m3_t2k_4gt8dg080000gn/T//ccoIGrQV.o (__vector_dispatch_35)
/Applications/microchip/xc32/v2.41/bin/bin/../../lib/gcc/pic32mx/4.8.3/../../../../pic32mx/lib/speed/libpic32.a(vector44.o)
                              /var/folders/nb/nscgpnq50m3_t2k_4gt8dg080000gn/T//ccoIGrQV.o (__vector_dispatch_44)
/Applications/microchip/xc32/v2.41/bin/bin/../../lib/gcc/pic32mx/4.8.3/../../../../pic32mx/lib/speed/libpic32.a(vector45.o)
                              /var/folders/nb/nscgpnq50m3_t2k_4gt8dg080000gn/T//ccoIGrQV.o (__vector_dispatch_45)
/Applications/microchip/xc32/v2.41/bin/bin/../../lib/gcc/pic32mx/4.8.3/../../../../pic32mx/lib/speed/libpic32.a(vector48.o)
                              /var/folders/nb/nscgpnq50m3_t2k_4gt8dg080000gn/T//ccoIGrQV.o (__vector_dispatch_48)
/Applications/microchip/xc32/v2.41/bin/bin/../../lib/gcc/pic32mx/4.8.3/../../../../pic32mx/lib/speed/libpic32.a(default-general-exception-handler.o)
                              /Applications/microchip/xc32/v2.41/bin/bin/../../lib/gcc/pic32mx/4.8.3/../../../../pic32mx/lib/speed/libpic32.a(general-exception.o) (_general_exception_handler)
/Applications/microchip/xc32/v2.41/bin/bin/../../lib/gcc/pic32mx/4.8.3/../../../../pic32mx/lib/speed/libpic32.a(defaultinterrupt.o)
                              /Applications/microchip/xc32/v2.41/bin/bin/../../lib/gcc/pic32mx/4.8.3/../../../../pic32mx/lib/speed/libpic32.a(vector0.o) (_DefaultInterrupt)
/Applications/microchip/xc32/v2.41/bin/bin/../../lib/gcc/pic32mx/4.8.3/../../../../pic32mx/lib/speed/libc.a(ctypef.o)
                              ../../PLIB2_GIT/PLIB.X/dist/default/production/PLIB.X.a(string_advance.o) (tolower)
/Applications/microchip/xc32/v2.41/bin/bin/../../lib/gcc/pic32mx/4.8.3/../../../../pic32mx/lib/speed/libc.a(malloc.o)
                              ../../PLIB2_GIT/PLIB.X/dist/default/production/PLIB.X.a(string_advance.o) (malloc)
/Applications/microchip/xc32/v2.41/bin/bin/../../lib/gcc/pic32mx/4.8.3/../../../../pic32mx/lib/speed/libc.a(strstr.o)
                              ../../PLIB2_GIT/PLIB.X/dist/default/production/PLIB.X.a(string_advance.o) (strstr)
/Applications/microchip/xc32/v2.41/bin/bin/../../lib/gcc/pic32mx/4.8.3/../../../../pic32mx/lib/speed/libc.a(ctype.o)
                              /Applications/microchip/xc32/v2.41/bin/bin/../../lib/gcc/pic32mx/4.8.3/../../../../pic32mx/lib/speed/libc.a(ctypef.o) (_ctype)
/Applications/microchip/xc32/v2.41/bin/bin/../../lib/gcc/pic32mx/4.8.3/../../../../pic32mx/lib/speed/libc.a(strchr.o)
                              /Applications/microchip/xc32/v2.41/bin/bin/../../lib/gcc/pic32mx/4.8.3/../../../../pic32mx/lib/speed/libc.a(strstr.o) (strchr)
/Applications/microchip/xc32/v2.41/bin/bin/../../lib/gcc/pic32mx/4.8.3/../../../../pic32mx/lib/speed/libc.a(strncmp.o)
                              /Applications/microchip/xc32/v2.41/bin/bin/../../lib/gcc/pic32mx/4.8.3/../../../../pic32mx/lib/speed/libc.a(strstr.o) (strncmp)
/Applications/microchip/xc32/v2.41/bin/bin/../../lib/gcc/pic32mx/4.8.3/../../../../pic32mx/lib/speed/libm.a(w_pow.o)
                              ../../PLIB2_GIT/PLIB.X/dist/default/production/PLIB.X.a(sd_card.o) (powl)
/Applications/microchip/xc32/v2.41/bin/bin/../../lib/gcc/pic32mx/4.8.3/../../../../pic32mx/lib/speed/libm.a(w_log.o)
                              ../../PLIB2_GIT/PLIB.X/dist/default/production/PLIB.X.a(utilities.o) (logl)
/Applications/microchip/xc32/v2.41/bin/bin/../../lib/gcc/pic32mx/4.8.3/../../../../pic32mx/lib/speed/libm.a(dp32div.o)
                              build/default/production/_ext/1472/main.o (dpdiv)
/Applications/microchip/xc32/v2.41/bin/bin/../../lib/gcc/pic32mx/4.8.3/../../../../pic32mx/lib/speed/libm.a(dp32mul.o)
                              build/default/production/_ext/1472/main.o (dpmul)
/Applications/microchip/xc32/v2.41/bin/bin/../../lib/gcc/pic32mx/4.8.3/../../../../pic32mx/lib/speed/libm.a(dp32subadd.o)
                              ../../PLIB2_GIT/PLIB.X/dist/default/production/PLIB.X.a(utilities.o) (dpsub)
/Applications/microchip/xc32/v2.41/bin/bin/../../lib/gcc/pic32mx/4.8.3/../../../../pic32mx/lib/speed/libm.a(dpcmp.o)
                              ../../PLIB2_GIT/PLIB.X/dist/default/production/PLIB.X.a(utilities.o) (dpcmp)
/Applications/microchip/xc32/v2.41/bin/bin/../../lib/gcc/pic32mx/4.8.3/../../../../pic32mx/lib/speed/libm.a(dptofp.o)
                              build/default/production/_ext/1472/main.o (dptofp)
/Applications/microchip/xc32/v2.41/bin/bin/../../lib/gcc/pic32mx/4.8.3/../../../../pic32mx/lib/speed/libm.a(dptoul.o)
                              ../../PLIB2_GIT/PLIB.X/dist/default/production/PLIB.X.a(sd_card.o) (dptoul)
/Applications/microchip/xc32/v2.41/bin/bin/../../lib/gcc/pic32mx/4.8.3/../../../../pic32mx/lib/speed/libm.a(fp32div.o)
                              ../../PLIB2_GIT/PLIB.X/dist/default/production/PLIB.X.a(_EXAMPLES_.o) (fpdiv)
/Applications/microchip/xc32/v2.41/bin/bin/../../lib/gcc/pic32mx/4.8.3/../../../../pic32mx/lib/speed/libm.a(fp32mul.o)
                              build/default/production/_ext/1472/main.o (fpmul)
/Applications/microchip/xc32/v2.41/bin/bin/../../lib/gcc/pic32mx/4.8.3/../../../../pic32mx/lib/speed/libm.a(fp32subadd.o)
                              ../../PLIB2_GIT/PLIB.X/dist/default/production/PLIB.X.a(utilities.o) (fpsub)
/Applications/microchip/xc32/v2.41/bin/bin/../../lib/gcc/pic32mx/4.8.3/../../../../pic32mx/lib/speed/libm.a(fpcmp.o)
                              ../../PLIB2_GIT/PLIB.X/dist/default/production/PLIB.X.a(_EXAMPLES_.o) (fpcmp)
/Applications/microchip/xc32/v2.41/bin/bin/../../lib/gcc/pic32mx/4.8.3/../../../../pic32mx/lib/speed/libm.a(fptodp.o)
                              build/default/production/_ext/1472/main.o (fptodp)
/Applications/microchip/xc32/v2.41/bin/bin/../../lib/gcc/pic32mx/4.8.3/../../../../pic32mx/lib/speed/libm.a(fptoul.o)
                              ../../PLIB2_GIT/PLIB.X/dist/default/production/PLIB.X.a(_EXAMPLES_.o) (fptoui)
/Applications/microchip/xc32/v2.41/bin/bin/../../lib/gcc/pic32mx/4.8.3/../../../../pic32mx/lib/speed/libm.a(litodp.o)
                              ../../PLIB2_GIT/PLIB.X/dist/default/production/PLIB.X.a(_EXAMPLES_.o) (litodp)
/Applications/microchip/xc32/v2.41/bin/bin/../../lib/gcc/pic32mx/4.8.3/../../../../pic32mx/lib/speed/libm.a(sitofp.o)
                              ../../PLIB2_GIT/PLIB.X/dist/default/production/PLIB.X.a(utilities.o) (sitofp)
/Applications/microchip/xc32/v2.41/bin/bin/../../lib/gcc/pic32mx/4.8.3/../../../../pic32mx/lib/speed/libm.a(s_lib_ver.o)
                              /Applications/microchip/xc32/v2.41/bin/bin/../../lib/gcc/pic32mx/4.8.3/../../../../pic32mx/lib/speed/libm.a(w_pow.o) (math_errhandling)
/Applications/microchip/xc32/v2.41/bin/bin/../../lib/gcc/pic32mx/4.8.3/../../../../pic32mx/lib/speed/libm.a(dpmodf.o)
                              /Applications/microchip/xc32/v2.41/bin/bin/../../lib/gcc/pic32mx/4.8.3/../../../../pic32mx/lib/speed/libm.a(w_pow.o) (modfl)
/Applications/microchip/xc32/v2.41/bin/bin/../../lib/gcc/pic32mx/4.8.3/../../../../pic32mx/lib/speed/libm.a(pow32.o)
                              /Applications/microchip/xc32/v2.41/bin/bin/../../lib/gcc/pic32mx/4.8.3/../../../../pic32mx/lib/speed/libm.a(w_pow.o) (__mchp_pow)
/Applications/microchip/xc32/v2.41/bin/bin/../../lib/gcc/pic32mx/4.8.3/../../../../pic32mx/lib/speed/libm.a(log32.o)
                              /Applications/microchip/xc32/v2.41/bin/bin/../../lib/gcc/pic32mx/4.8.3/../../../../pic32mx/lib/speed/libm.a(pow32.o) (exlog)
/Applications/microchip/xc32/v2.41/bin/bin/../../lib/gcc/pic32mx/4.8.3/../../../../pic32mx/lib/speed/libm.a(exadd.o)
                              /Applications/microchip/xc32/v2.41/bin/bin/../../lib/gcc/pic32mx/4.8.3/../../../../pic32mx/lib/speed/libm.a(log32.o) (exadd)
/Applications/microchip/xc32/v2.41/bin/bin/../../lib/gcc/pic32mx/4.8.3/../../../../pic32mx/lib/speed/libm.a(exdiv.o)
                              /Applications/microchip/xc32/v2.41/bin/bin/../../lib/gcc/pic32mx/4.8.3/../../../../pic32mx/lib/speed/libm.a(pow32.o) (exdiv)
/Applications/microchip/xc32/v2.41/bin/bin/../../lib/gcc/pic32mx/4.8.3/../../../../pic32mx/lib/speed/libm.a(exmul.o)
                              /Applications/microchip/xc32/v2.41/bin/bin/../../lib/gcc/pic32mx/4.8.3/../../../../pic32mx/lib/speed/libm.a(pow32.o) (exmul)
/Applications/microchip/xc32/v2.41/bin/bin/../../lib/gcc/pic32mx/4.8.3/../../../../pic32mx/lib/speed/libm.a(sigmax.o)
                              /Applications/microchip/xc32/v2.41/bin/bin/../../lib/gcc/pic32mx/4.8.3/../../../../pic32mx/lib/speed/libm.a(log32.o) (sigmax)
/Applications/microchip/xc32/v2.41/bin/bin/../../lib/gcc/pic32mx/4.8.3/../../../../pic32mx/lib/speed/libm.a(exp32.o)
                              /Applications/microchip/xc32/v2.41/bin/bin/../../lib/gcc/pic32mx/4.8.3/../../../../pic32mx/lib/speed/libm.a(pow32.o) (exexp)
/Applications/microchip/xc32/v2.41/bin/bin/../../lib/gcc/pic32mx/4.8.3/../../../../pic32mx/lib/speed/libpic32.a(sbrk.o)
                              /Applications/microchip/xc32/v2.41/bin/bin/../../lib/gcc/pic32mx/4.8.3/../../../../pic32mx/lib/speed/libc.a(malloc.o) (sbrk)
/Applications/microchip/xc32/v2.41/bin/bin/../../lib/gcc/pic32mx/4.8.3/../../../../pic32mx/lib/speed/libpic32.a(errno.o)
                              /Applications/microchip/xc32/v2.41/bin/bin/../../lib/gcc/pic32mx/4.8.3/../../../../pic32mx/lib/speed/libm.a(w_pow.o) (errno)
/Applications/microchip/xc32/v2.41/bin/bin/../../lib/gcc/pic32mx/4.8.3/../../../../pic32mx/lib/speed/libpic32.a(isinf.o)
                              /Applications/microchip/xc32/v2.41/bin/bin/../../lib/gcc/pic32mx/4.8.3/../../../../pic32mx/lib/speed/libm.a(w_pow.o) (isinfl)
/Applications/microchip/xc32/v2.41/bin/bin/../../lib/gcc/pic32mx/4.8.3/../../../../pic32mx/lib/speed/libe.a(_unorddf2.o)
                              /Applications/microchip/xc32/v2.41/bin/bin/../../lib/gcc/pic32mx/4.8.3/../../../../pic32mx/lib/speed/libpic32.a(isinf.o) (__unorddf2)

Allocating common symbols
Common symbol       size              file

__led_status        0x1               build/default/production/_ext/1472/config.o
__current           0x1               build/default/production/_ext/1472/config.o
getTick             0x8               build/default/production/_ext/1472/config.o
__speed             0x4               build/default/production/_ext/1472/config.o
getLastCompare      0x8               build/default/production/_ext/1472/config.o
getTime             0x8               build/default/production/_ext/1472/config.o
__voltage           0x1               build/default/production/_ext/1472/config.o
__temperature       0x2               build/default/production/_ext/1472/config.o

Microchip PIC32 Memory-Usage Report

kseg0 Program-Memory Usage
section                    address  length [bytes]      (dec)  Description
-------                 ----------  -------------------------  -----------
.text                   0x9d000000         0x7df0       32240  App's exec code 
.rodata                 0x9d007df0         0x3d28       15656  Read-only const 
.text                   0x9d00bb18         0x5dd4       24020  App's exec code 
.text                   0x9d0118ec         0x2828       10280  App's exec code 
.dinit                  0x9d014114         0x25c0        9664   
.text                   0x9d0166d4         0x2e14       11796  App's exec code 
.text                   0x9d0194e8          0xf84        3972  App's exec code 
.rodata                 0x9d01a470          0xf80        3968  Read-only const 
.text                   0x9d01b3f0         0x1b60        7008  App's exec code 
.rodata                 0x9d01cf50          0xa38        2616  Read-only const 
.text                   0x9d01d988         0x11f4        4596  App's exec code 
.text                   0x9d01eb7c          0xf88        3976  App's exec code 
.text                   0x9d01fb04          0xc20        3104  App's exec code 
.text                   0x9d020724          0xa94        2708  App's exec code 
.text.dp32mul           0x9d0211b8          0x4b8        1208   
.text                   0x9d021670          0x8bc        2236  App's exec code 
.text.dp32subadd        0x9d021f2c          0x430        1072   
.rodata                 0x9d02235c          0x400        1024  Read-only const 
.text                   0x9d02275c          0x684        1668  App's exec code 
.text                   0x9d022de0          0x32c         812  App's exec code 
.text.dp32mul           0x9d02310c          0x32c         812   
.text                   0x9d023438          0x5ec        1516  App's exec code 
.text.malloc            0x9d023a24          0x27c         636   
.text.fpsubadd          0x9d023ca0          0x278         632   
.text.libm              0x9d023f18          0x268         616   
.text                   0x9d024180          0x244         580  App's exec code 
.text.fp32div           0x9d0243c4          0x230         560   
.text                   0x9d0245f4          0x424        1060  App's exec code 
.rodata                 0x9d024a18          0x200         512  Read-only const 
.text                   0x9d024c18          0x3b0         944  App's exec code 
.text.fp32mul           0x9d024fc8          0x1bc         444   
.text._sbrk_init        0x9d025184          0x194         404   
.text                   0x9d025318          0x184         388  App's exec code 
.text.powl              0x9d02549c          0x174         372   
.text                   0x9d025610          0x2d0         720  App's exec code 
.text.realloc           0x9d0258e0          0x148         328   
.text.dpcmp             0x9d025a28          0x12c         300   
.text                   0x9d025b54          0x120         288  App's exec code 
.text.libm              0x9d025c74          0x22c         556   
.rodata                 0x9d025ea0          0x104         260  Read-only const 
.text.dptofp            0x9d025fa4          0x100         256   
.text.libm              0x9d0260a4           0xf0         240   
.text.logl              0x9d026194           0xe8         232   
.text                   0x9d02627c           0xe0         224  App's exec code 
.text.general_exception 0x9d02635c           0xdc         220   
.text.libm              0x9d026438           0xd0         208   
.text._sbrk             0x9d026508           0xc8         200   
.text.fptodp            0x9d0265d0           0xac         172   
.text                   0x9d02667c          0x148         328  App's exec code 
.text.fpcmp             0x9d0267c4           0x9c         156   
.text                   0x9d026860          0x128         296  App's exec code 
.text.strstr            0x9d026988           0x90         144   
.text.dptoul            0x9d026a18           0x8c         140   
.text.isinff            0x9d026aa4           0x8c         140   
.text.isinf             0x9d026b30           0x88         136   
.text                   0x9d026bb8           0x84         132  App's exec code 
.text.fptoul            0x9d026c3c           0x7c         124   
.text.litodp            0x9d026cb8           0x78         120   
.text.strncmp           0x9d026d30           0x70         112   
.text                   0x9d026da0           0xd8         216  App's exec code 
.text.__unorddf2        0x9d026e78           0x64         100   
.rodata                 0x9d026ee0           0x60          96  Read-only const 
.text.sitofp            0x9d026f40           0x60          96   
.text.main_entry        0x9d026fa0           0x54          84   
.rodata                 0x9d026ff8           0x50          80  Read-only const 
.text.sbrk              0x9d027048           0x50          80   
.text                   0x9d027098           0x4c          76  App's exec code 
.text._bootstrap_except 0x9d0270e4           0x48          72   
.text._general_exceptio 0x9d02712c           0x48          72   
.vector_default         0x9d027174           0x48          72   
.text                   0x9d0271bc           0x88         136  App's exec code 
.rodata                 0x9d027244           0x80         128  Read-only const 
.rodata                 0x9d0272c4           0x38          56  Read-only const 
.text.isnanf            0x9d0272fc           0x34          52   
.rodata                 0x9d027330           0x30          48  Read-only const 
.text.free              0x9d027360           0x30          48   
.rodata                 0x9d027390           0x2c          44  Read-only const 
.text                   0x9d0273bc           0x2c          44  App's exec code 
.text.strchr            0x9d0273e8           0x2c          44   
.text._stub_sbd_memlayo 0x9d027414           0x2c          44   
.rodata                 0x9d027440           0x50          80  Read-only const 
.rodata                 0x9d027490           0x28          40  Read-only const 
.text.isnanl            0x9d0274b8           0x28          40   
.text.isinfl            0x9d0274e0           0x28          40   
.text.tolower           0x9d027508           0x24          36   
.text.toupper           0x9d02752c           0x24          36   
.text.isnan             0x9d027550           0x24          36   
.rodata                 0x9d027578           0x3c          60  Read-only const 
.rodata                 0x9d0275b4           0x18          24  Read-only const 
.text                   0x9d0275cc           0x18          24  App's exec code 
.text.isalnum           0x9d0275e4           0x18          24   
.text.isalpha           0x9d0275fc           0x18          24   
.text.iscntrl           0x9d027614           0x18          24   
.text.isdigit           0x9d02762c           0x18          24   
.text.isgraph           0x9d027644           0x18          24   
.text.islower           0x9d02765c           0x18          24   
.text.isprint           0x9d027674           0x18          24   
.text.ispunct           0x9d02768c           0x18          24   
.text.isspace           0x9d0276a4           0x18          24   
.text.isupper           0x9d0276bc           0x18          24   
.text.isxdigit          0x9d0276d4           0x18          24   
.rodata                 0x9d0276ec           0x28          40  Read-only const 
.rodata                 0x9d027714           0x10          16  Read-only const 
.rodata                 0x9d027728           0x10          16  Read-only const 
.text._on_reset         0x9d027738            0x8           8   
.text._on_bootstrap     0x9d027740            0x8           8   
.text.isascii           0x9d027748            0x8           8   
.text.toascii           0x9d027750            0x8           8   
.text._tolower          0x9d027758            0x8           8   
.text._toupper          0x9d027760            0x8           8   
.rodata                 0x9d027768            0x8           8  Read-only const 
.text.getpagesize       0x9d027770            0x8           8   
.rodata                 0x9d027778            0x8           8  Read-only const 
      Total kseg0_program_mem used  :     0x2776c      161644  30.8% of 0x80000

kseg0 Boot-Memory Usage
section                    address  length [bytes]      (dec)  Description
-------                 ----------  -------------------------  -----------
         Total kseg0_boot_mem used  :           0           0  <1% of 0x970

Exception-Memory Usage 
section                    address  length [bytes]      (dec)  Description
-------                 ----------  -------------------------  -----------
.app_excpt              0x9fc01180           0x10          16  General-Exception 
.vector_0               0x9fc01200            0x8           8  Interrupt Vector 0 
.vector_1               0x9fc01220            0x8           8  Interrupt Vector 1 
.vector_2               0x9fc01240            0x8           8  Interrupt Vector 2 
.vector_3               0x9fc01260            0x8           8  Interrupt Vector 3 
.vector_4               0x9fc01280            0x8           8  Interrupt Vector 4 
.vector_5               0x9fc012a0            0x8           8  Interrupt Vector 5 
.vector_6               0x9fc012c0            0x8           8  Interrupt Vector 6 
.vector_7               0x9fc012e0            0x8           8  Interrupt Vector 7 
.vector_8               0x9fc01300            0x8           8  Interrupt Vector 8 
.vector_9               0x9fc01320            0x8           8  Interrupt Vector 9 
.vector_10              0x9fc01340            0x8           8  Interrupt Vector 10 
.vector_11              0x9fc01360            0x8           8  Interrupt Vector 11 
.vector_12              0x9fc01380            0x8           8  Interrupt Vector 12 
.vector_13              0x9fc013a0            0x8           8  Interrupt Vector 13 
.vector_14              0x9fc013c0            0x8           8  Interrupt Vector 14 
.vector_15              0x9fc013e0            0x8           8  Interrupt Vector 15 
.vector_16              0x9fc01400            0x8           8  Interrupt Vector 16 
.vector_17              0x9fc01420            0x8           8  Interrupt Vector 17 
.vector_18              0x9fc01440            0x8           8  Interrupt Vector 18 
.vector_19              0x9fc01460            0x8           8  Interrupt Vector 19 
.vector_20              0x9fc01480            0x8           8  Interrupt Vector 20 
.vector_21              0x9fc014a0            0x8           8  Interrupt Vector 21 
.vector_22              0x9fc014c0            0x8           8  Interrupt Vector 22 
.vector_23              0x9fc014e0            0x8           8  Interrupt Vector 23 
.vector_24              0x9fc01500            0x8           8  Interrupt Vector 24 
.vector_25              0x9fc01520            0x8           8  Interrupt Vector 25 
.vector_26              0x9fc01540            0x8           8  Interrupt Vector 26 
.vector_27              0x9fc01560            0x8           8  Interrupt Vector 27 
.vector_28              0x9fc01580            0x8           8  Interrupt Vector 28 
.vector_29              0x9fc015a0            0x8           8  Interrupt Vector 29 
.vector_30              0x9fc015c0            0x8           8  Interrupt Vector 30 
.vector_31              0x9fc015e0            0x8           8  Interrupt Vector 31 
.vector_32              0x9fc01600            0x8           8  Interrupt Vector 32 
.vector_33              0x9fc01620            0x8           8  Interrupt Vector 33 
.vector_34              0x9fc01640            0x8           8  Interrupt Vector 34 
.vector_35              0x9fc01660            0x8           8  Interrupt Vector 35 
.vector_36              0x9fc01680            0x8           8  Interrupt Vector 36 
.vector_37              0x9fc016a0            0x8           8  Interrupt Vector 37 
.vector_38              0x9fc016c0            0x8           8  Interrupt Vector 38 
.vector_39              0x9fc016e0            0x8           8  Interrupt Vector 39 
.vector_40              0x9fc01700            0x8           8  Interrupt Vector 40 
.vector_41              0x9fc01720            0x8           8  Interrupt Vector 41 
.vector_42              0x9fc01740            0x8           8  Interrupt Vector 42 
.vector_43              0x9fc01760            0x8           8  Interrupt Vector 43 
.vector_44              0x9fc01780            0x8           8  Interrupt Vector 44 
.vector_45              0x9fc017a0            0x8           8  Interrupt Vector 45 
.vector_46              0x9fc017c0            0x8           8  Interrupt Vector 46 
.vector_47              0x9fc017e0            0x8           8  Interrupt Vector 47 
.vector_48              0x9fc01800            0x8           8  Interrupt Vector 48 
.vector_49              0x9fc01820            0x8           8  Interrupt Vector 49 
.vector_50              0x9fc01840            0x8           8  Interrupt Vector 50 
.vector_51              0x9fc01860            0x8           8  Interrupt Vector 51 
          Total exception_mem used  :       0x1b0         432  10.5% of 0x1000

kseg1 Boot-Memory Usage
section                    address  length [bytes]      (dec)  Description
-------                 ----------  -------------------------  -----------
.reset                  0xbfc00000          0x19c         412  Reset handler 
.bev_excpt              0xbfc00380           0x10          16  BEV-Exception 
         Total kseg1_boot_mem used  :       0x1ac         428  36.6% of 0x490
        --------------------------------------------------------------------------
         Total Program Memory used  :     0x27ac8      162504  30.5% of 0x81e00
        --------------------------------------------------------------------------


kseg1 Data-Memory Usage
section                    address  length [bytes]      (dec)  Description
-------                 ----------  -------------------------  -----------
.sdata                  0xa0000000           0x5c          92  Small init data 
.sbss                   0xa000005c          0x170         368  Small uninit data 
.bss                    0xa00001cc         0x3ea4       16036  Uninitialized data 
.data                   0xa0004070         0x1d30        7472  Initialized data 
.bss                    0xa0005da0         0x2f08       12040  Uninitialized data 
.data                   0xa0008ca8          0x460        1120  Initialized data 
.bss                    0xa0009108          0x4c8        1224  Uninitialized data 
.bss                    0xa00095d0          0x120         288  Uninitialized data 
.data                   0xa00096f0          0x188         392  Initialized data 
.bss                    0xa0009878           0x90         144  Uninitialized data 
.data                   0xa0009908           0x30          48  Initialized data 
.bss                    0xa0009938           0x58          88  Uninitialized data 
.bss                    0xa0009990           0x24          36  Uninitialized data 
.data                   0xa00099b4           0x20          32  Initialized data 
.bss                    0xa00099d4           0x38          56  Uninitialized data 
.bss                    0xa0009a0c           0x28          40  Uninitialized data 
.bss                    0xa0009a34           0x10          16  Uninitialized data 
.data                   0xa0009a44           0x10          16  Initialized data 
.data.math_errhandling_ 0xa0009a54            0x4           4   
.bss.errno              0xa0009a58            0x4           4   
         Total kseg1_data_mem used  :      0x9a5c       39516  30.1% of 0x20000
        --------------------------------------------------------------------------
            Total Data Memory used  :      0x9a5c       39516  30.1% of 0x20000
        --------------------------------------------------------------------------


Dynamic Data-Memory Reservation
section                    address  length [bytes]      (dec)  Description
-------                 ----------  -------------------------  -----------
heap                    0xa0009a60         0x4e20       20000  Reserved for heap 
stack                   0xa000e898        0x11758       71512  Reserved for stack 

        --------------------------------------------------------------------------

Discarded input sections

 .reginfo       0x00000000       0x18 build/default/production/_ext/1472/config.o
 .reginfo       0x00000000       0x18 build/default/production/_ext/1472/interrupts.o
 .reginfo       0x00000000       0x18 build/default/production/_ext/1472/main.o
 .reginfo       0x00000000       0x18 ../../PLIB2_GIT/PLIB.X/dist/default/production/PLIB.X.a(_EXAMPLES_.o)
 .reginfo       0x00000000       0x18 ../../PLIB2_GIT/PLIB.X/dist/default/production/PLIB.X.a(_LOG.o)
 .reginfo       0x00000000       0x18 ../../PLIB2_GIT/PLIB.X/dist/default/production/PLIB.X.a(pink_lady.o)
 .reginfo       0x00000000       0x18 ../../PLIB2_GIT/PLIB.X/dist/default/production/PLIB.X.a(sd_card.o)
 .reginfo       0x00000000       0x18 ../../PLIB2_GIT/PLIB.X/dist/default/production/PLIB.X.a(e_mcp23s17.o)
 .reginfo       0x00000000       0x18 ../../PLIB2_GIT/PLIB.X/dist/default/production/PLIB.X.a(e_at42qt2120.o)
 .reginfo       0x00000000       0x18 ../../PLIB2_GIT/PLIB.X/dist/default/production/PLIB.X.a(e_pca9685.o)
 .reginfo       0x00000000       0x18 ../../PLIB2_GIT/PLIB.X/dist/default/production/PLIB.X.a(e_veml7700.o)
 .reginfo       0x00000000       0x18 ../../PLIB2_GIT/PLIB.X/dist/default/production/PLIB.X.a(e_tps92662.o)
 .reginfo       0x00000000       0x18 ../../PLIB2_GIT/PLIB.X/dist/default/production/PLIB.X.a(e_grove_motor_tb6612fng.o)
 .reginfo       0x00000000       0x18 ../../PLIB2_GIT/PLIB.X/dist/default/production/PLIB.X.a(ble.o)
 .reginfo       0x00000000       0x18 ../../PLIB2_GIT/PLIB.X/dist/default/production/PLIB.X.a(utilities.o)
 .reginfo       0x00000000       0x18 ../../PLIB2_GIT/PLIB.X/dist/default/production/PLIB.X.a(string_advance.o)
 .reginfo       0x00000000       0x18 ../../PLIB2_GIT/PLIB.X/dist/default/production/PLIB.X.a(lin.o)
 .reginfo       0x00000000       0x18 ../../PLIB2_GIT/PLIB.X/dist/default/production/PLIB.X.a(software_pwm.o)
 .reginfo       0x00000000       0x18 ../../PLIB2_GIT/PLIB.X/dist/default/production/PLIB.X.a(crc_16.o)
 .reginfo       0x00000000       0x18 ../../PLIB2_GIT/PLIB.X/dist/default/production/PLIB.X.a(errors.o)
 .reginfo       0x00000000       0x18 ../../PLIB2_GIT/PLIB.X/dist/default/production/PLIB.X.a(s14_timers.o)
 .reginfo       0x00000000       0x18 ../../PLIB2_GIT/PLIB.X/dist/default/production/PLIB.X.a(s23_spi.o)
 .reginfo       0x00000000       0x18 ../../PLIB2_GIT/PLIB.X/dist/default/production/PLIB.X.a(s17_adc.o)
 .reginfo       0x00000000       0x18 ../../PLIB2_GIT/PLIB.X/dist/default/production/PLIB.X.a(s16_output_compare.o)
 .reginfo       0x00000000       0x18 ../../PLIB2_GIT/PLIB.X/dist/default/production/PLIB.X.a(s24_i2c.o)
 .reginfo       0x00000000       0x18 ../../PLIB2_GIT/PLIB.X/dist/default/production/PLIB.X.a(s12_ports.o)
 .reginfo       0x00000000       0x18 ../../PLIB2_GIT/PLIB.X/dist/default/production/PLIB.X.a(s21_uart.o)
 .reginfo       0x00000000       0x18 ../../PLIB2_GIT/PLIB.X/dist/default/production/PLIB.X.a(s31_dma.o)
 .reginfo       0x00000000       0x18 ../../PLIB2_GIT/PLIB.X/dist/default/production/PLIB.X.a(s07_resets.o)
 .reginfo       0x00000000       0x18 ../../PLIB2_GIT/PLIB.X/dist/default/production/PLIB.X.a(s08_interrupts.o)
 .reginfo       0x00000000       0x18 ../../PLIB2_GIT/PLIB.X/dist/default/production/PLIB.X.a(s00_system.o)
 .reginfo       0x00000000       0x18 ../../PLIB2_GIT/PLIB.X/dist/default/production/PLIB.X.a(s34_can.o)
 .reginfo       0x00000000       0x18 /var/folders/nb/nscgpnq50m3_t2k_4gt8dg080000gn/T//cckU0PY8.o
 .reginfo       0x00000000       0x18 /var/folders/nb/nscgpnq50m3_t2k_4gt8dg080000gn/T//cc2Byh3D.o
 .reginfo       0x00000000       0x18 /var/folders/nb/nscgpnq50m3_t2k_4gt8dg080000gn/T//ccoIGrQV.o
 .discard       0x00000000       0xd0 /var/folders/nb/nscgpnq50m3_t2k_4gt8dg080000gn/T//ccoIGrQV.o
 .reginfo       0x00000000       0x18 /Applications/microchip/xc32/v2.41/bin/bin/../../lib/gcc/pic32mx/4.8.3/../../../../pic32mx/lib/speed/pic32_software_reset.o
 .reginfo       0x00000000       0x18 /Applications/microchip/xc32/v2.41/bin/bin/../../lib/gcc/pic32mx/4.8.3/../../../../pic32mx/lib/./proc/32MX795F512L/processor.o
 .reginfo       0x00000000       0x18 /Applications/microchip/xc32/v2.41/bin/bin/../../lib/gcc/pic32mx/4.8.3/speed/libgcc.a(_floatundisf.o)
 .reginfo       0x00000000       0x18 /Applications/microchip/xc32/v2.41/bin/bin/../../lib/gcc/pic32mx/4.8.3/speed/libgcc.a(_udivdi3.o)
 .reginfo       0x00000000       0x18 /Applications/microchip/xc32/v2.41/bin/bin/../../lib/gcc/pic32mx/4.8.3/speed/libgcc.a(_umoddi3.o)
 .reginfo       0x00000000       0x18 /Applications/microchip/xc32/v2.41/bin/bin/../../lib/gcc/pic32mx/4.8.3/speed/libgcc.a(floatunsisf.o)
 .reginfo       0x00000000       0x18 /Applications/microchip/xc32/v2.41/bin/bin/../../lib/gcc/pic32mx/4.8.3/speed/libgcc.a(floatunsidf.o)
 .reginfo       0x00000000       0x18 /Applications/microchip/xc32/v2.41/bin/bin/../../lib/gcc/pic32mx/4.8.3/../../../../pic32mx/lib/speed/libpic32.a(memcpy.o)
 .reginfo       0x00000000       0x18 /Applications/microchip/xc32/v2.41/bin/bin/../../lib/gcc/pic32mx/4.8.3/../../../../pic32mx/lib/speed/libpic32.a(memset.o)
 .reginfo       0x00000000       0x18 /Applications/microchip/xc32/v2.41/bin/bin/../../lib/gcc/pic32mx/4.8.3/../../../../pic32mx/lib/speed/libpic32.a(strcmp.o)
 .reginfo       0x00000000       0x18 /Applications/microchip/xc32/v2.41/bin/bin/../../lib/gcc/pic32mx/4.8.3/../../../../pic32mx/lib/speed/libpic32.a(strlen.o)
 .reginfo       0x00000000       0x18 /Applications/microchip/xc32/v2.41/bin/bin/../../lib/gcc/pic32mx/4.8.3/../../../../pic32mx/lib/speed/libpic32.a(default-bootstrap-exception-handler.o)
 .reginfo       0x00000000       0x18 /Applications/microchip/xc32/v2.41/bin/bin/../../lib/gcc/pic32mx/4.8.3/../../../../pic32mx/lib/speed/libpic32.a(default-on-reset.o)
 .reginfo       0x00000000       0x18 /Applications/microchip/xc32/v2.41/bin/bin/../../lib/gcc/pic32mx/4.8.3/../../../../pic32mx/lib/speed/libpic32.a(default-on-bootstrap.o)
 .reginfo       0x00000000       0x18 /Applications/microchip/xc32/v2.41/bin/bin/../../lib/gcc/pic32mx/4.8.3/../../../../pic32mx/lib/speed/libpic32.a(default-nmi-handler.o)
 .reginfo       0x00000000       0x18 /Applications/microchip/xc32/v2.41/bin/bin/../../lib/gcc/pic32mx/4.8.3/../../../../pic32mx/lib/speed/libpic32.a(pic32_data_init.o)
 .reginfo       0x00000000       0x18 /Applications/microchip/xc32/v2.41/bin/bin/../../lib/gcc/pic32mx/4.8.3/../../../../pic32mx/lib/speed/libpic32.a(general-exception.o)
 .reginfo       0x00000000       0x18 /Applications/microchip/xc32/v2.41/bin/bin/../../lib/gcc/pic32mx/4.8.3/../../../../pic32mx/lib/speed/libpic32.a(vector0.o)
 .reginfo       0x00000000       0x18 /Applications/microchip/xc32/v2.41/bin/bin/../../lib/gcc/pic32mx/4.8.3/../../../../pic32mx/lib/speed/libpic32.a(vector1.o)
 .reginfo       0x00000000       0x18 /Applications/microchip/xc32/v2.41/bin/bin/../../lib/gcc/pic32mx/4.8.3/../../../../pic32mx/lib/speed/libpic32.a(vector2.o)
 .reginfo       0x00000000       0x18 /Applications/microchip/xc32/v2.41/bin/bin/../../lib/gcc/pic32mx/4.8.3/../../../../pic32mx/lib/speed/libpic32.a(vector3.o)
 .reginfo       0x00000000       0x18 /Applications/microchip/xc32/v2.41/bin/bin/../../lib/gcc/pic32mx/4.8.3/../../../../pic32mx/lib/speed/libpic32.a(vector5.o)
 .reginfo       0x00000000       0x18 /Applications/microchip/xc32/v2.41/bin/bin/../../lib/gcc/pic32mx/4.8.3/../../../../pic32mx/lib/speed/libpic32.a(vector6.o)
 .reginfo       0x00000000       0x18 /Applications/microchip/xc32/v2.41/bin/bin/../../lib/gcc/pic32mx/4.8.3/../../../../pic32mx/lib/speed/libpic32.a(vector7.o)
 .reginfo       0x00000000       0x18 /Applications/microchip/xc32/v2.41/bin/bin/../../lib/gcc/pic32mx/4.8.3/../../../../pic32mx/lib/speed/libpic32.a(vector9.o)
 .reginfo       0x00000000       0x18 /Applications/microchip/xc32/v2.41/bin/bin/../../lib/gcc/pic32mx/4.8.3/../../../../pic32mx/lib/speed/libpic32.a(vector10.o)
 .reginfo       0x00000000       0x18 /Applications/microchip/xc32/v2.41/bin/bin/../../lib/gcc/pic32mx/4.8.3/../../../../pic32mx/lib/speed/libpic32.a(vector11.o)
 .reginfo       0x00000000       0x18 /Applications/microchip/xc32/v2.41/bin/bin/../../lib/gcc/pic32mx/4.8.3/../../../../pic32mx/lib/speed/libpic32.a(vector13.o)
 .reginfo       0x00000000       0x18 /Applications/microchip/xc32/v2.41/bin/bin/../../lib/gcc/pic32mx/4.8.3/../../../../pic32mx/lib/speed/libpic32.a(vector14.o)
 .reginfo       0x00000000       0x18 /Applications/microchip/xc32/v2.41/bin/bin/../../lib/gcc/pic32mx/4.8.3/../../../../pic32mx/lib/speed/libpic32.a(vector15.o)
 .reginfo       0x00000000       0x18 /Applications/microchip/xc32/v2.41/bin/bin/../../lib/gcc/pic32mx/4.8.3/../../../../pic32mx/lib/speed/libpic32.a(vector17.o)
 .reginfo       0x00000000       0x18 /Applications/microchip/xc32/v2.41/bin/bin/../../lib/gcc/pic32mx/4.8.3/../../../../pic32mx/lib/speed/libpic32.a(vector18.o)
 .reginfo       0x00000000       0x18 /Applications/microchip/xc32/v2.41/bin/bin/../../lib/gcc/pic32mx/4.8.3/../../../../pic32mx/lib/speed/libpic32.a(vector19.o)
 .reginfo       0x00000000       0x18 /Applications/microchip/xc32/v2.41/bin/bin/../../lib/gcc/pic32mx/4.8.3/../../../../pic32mx/lib/speed/libpic32.a(vector21.o)
 .reginfo       0x00000000       0x18 /Applications/microchip/xc32/v2.41/bin/bin/../../lib/gcc/pic32mx/4.8.3/../../../../pic32mx/lib/speed/libpic32.a(vector22.o)
 .reginfo       0x00000000       0x18 /Applications/microchip/xc32/v2.41/bin/bin/../../lib/gcc/pic32mx/4.8.3/../../../../pic32mx/lib/speed/libpic32.a(vector28.o)
 .reginfo       0x00000000       0x18 /Applications/microchip/xc32/v2.41/bin/bin/../../lib/gcc/pic32mx/4.8.3/../../../../pic32mx/lib/speed/libpic32.a(vector29.o)
 .reginfo       0x00000000       0x18 /Applications/microchip/xc32/v2.41/bin/bin/../../lib/gcc/pic32mx/4.8.3/../../../../pic32mx/lib/speed/libpic32.a(vector30.o)
 .reginfo       0x00000000       0x18 /Applications/microchip/xc32/v2.41/bin/bin/../../lib/gcc/pic32mx/4.8.3/../../../../pic32mx/lib/speed/libpic32.a(vector34.o)
 .reginfo       0x00000000       0x18 /Applications/microchip/xc32/v2.41/bin/bin/../../lib/gcc/pic32mx/4.8.3/../../../../pic32mx/lib/speed/libpic32.a(vector35.o)
 .reginfo       0x00000000       0x18 /Applications/microchip/xc32/v2.41/bin/bin/../../lib/gcc/pic32mx/4.8.3/../../../../pic32mx/lib/speed/libpic32.a(vector44.o)
 .reginfo       0x00000000       0x18 /Applications/microchip/xc32/v2.41/bin/bin/../../lib/gcc/pic32mx/4.8.3/../../../../pic32mx/lib/speed/libpic32.a(vector45.o)
 .reginfo       0x00000000       0x18 /Applications/microchip/xc32/v2.41/bin/bin/../../lib/gcc/pic32mx/4.8.3/../../../../pic32mx/lib/speed/libpic32.a(vector48.o)
 .reginfo       0x00000000       0x18 /Applications/microchip/xc32/v2.41/bin/bin/../../lib/gcc/pic32mx/4.8.3/../../../../pic32mx/lib/speed/libpic32.a(default-general-exception-handler.o)
 .reginfo       0x00000000       0x18 /Applications/microchip/xc32/v2.41/bin/bin/../../lib/gcc/pic32mx/4.8.3/../../../../pic32mx/lib/speed/libpic32.a(defaultinterrupt.o)
 .reginfo       0x00000000       0x18 /Applications/microchip/xc32/v2.41/bin/bin/../../lib/gcc/pic32mx/4.8.3/../../../../pic32mx/lib/speed/libc.a(ctypef.o)
 .reginfo       0x00000000       0x18 /Applications/microchip/xc32/v2.41/bin/bin/../../lib/gcc/pic32mx/4.8.3/../../../../pic32mx/lib/speed/libc.a(malloc.o)
 .reginfo       0x00000000       0x18 /Applications/microchip/xc32/v2.41/bin/bin/../../lib/gcc/pic32mx/4.8.3/../../../../pic32mx/lib/speed/libc.a(strstr.o)
 .reginfo       0x00000000       0x18 /Applications/microchip/xc32/v2.41/bin/bin/../../lib/gcc/pic32mx/4.8.3/../../../../pic32mx/lib/speed/libc.a(ctype.o)
 .reginfo       0x00000000       0x18 /Applications/microchip/xc32/v2.41/bin/bin/../../lib/gcc/pic32mx/4.8.3/../../../../pic32mx/lib/speed/libc.a(strchr.o)
 .reginfo       0x00000000       0x18 /Applications/microchip/xc32/v2.41/bin/bin/../../lib/gcc/pic32mx/4.8.3/../../../../pic32mx/lib/speed/libc.a(strncmp.o)
 .reginfo       0x00000000       0x18 /Applications/microchip/xc32/v2.41/bin/bin/../../lib/gcc/pic32mx/4.8.3/../../../../pic32mx/lib/speed/libm.a(w_pow.o)
 .reginfo       0x00000000       0x18 /Applications/microchip/xc32/v2.41/bin/bin/../../lib/gcc/pic32mx/4.8.3/../../../../pic32mx/lib/speed/libm.a(w_log.o)
 .reginfo       0x00000000       0x18 /Applications/microchip/xc32/v2.41/bin/bin/../../lib/gcc/pic32mx/4.8.3/../../../../pic32mx/lib/speed/libm.a(dp32div.o)
 .reginfo       0x00000000       0x18 /Applications/microchip/xc32/v2.41/bin/bin/../../lib/gcc/pic32mx/4.8.3/../../../../pic32mx/lib/speed/libm.a(dp32mul.o)
 .reginfo       0x00000000       0x18 /Applications/microchip/xc32/v2.41/bin/bin/../../lib/gcc/pic32mx/4.8.3/../../../../pic32mx/lib/speed/libm.a(dp32subadd.o)
 .reginfo       0x00000000       0x18 /Applications/microchip/xc32/v2.41/bin/bin/../../lib/gcc/pic32mx/4.8.3/../../../../pic32mx/lib/speed/libm.a(dpcmp.o)
 .reginfo       0x00000000       0x18 /Applications/microchip/xc32/v2.41/bin/bin/../../lib/gcc/pic32mx/4.8.3/../../../../pic32mx/lib/speed/libm.a(dptofp.o)
 .reginfo       0x00000000       0x18 /Applications/microchip/xc32/v2.41/bin/bin/../../lib/gcc/pic32mx/4.8.3/../../../../pic32mx/lib/speed/libm.a(dptoul.o)
 .reginfo       0x00000000       0x18 /Applications/microchip/xc32/v2.41/bin/bin/../../lib/gcc/pic32mx/4.8.3/../../../../pic32mx/lib/speed/libm.a(fp32div.o)
 .reginfo       0x00000000       0x18 /Applications/microchip/xc32/v2.41/bin/bin/../../lib/gcc/pic32mx/4.8.3/../../../../pic32mx/lib/speed/libm.a(fp32mul.o)
 .reginfo       0x00000000       0x18 /Applications/microchip/xc32/v2.41/bin/bin/../../lib/gcc/pic32mx/4.8.3/../../../../pic32mx/lib/speed/libm.a(fp32subadd.o)
 .reginfo       0x00000000       0x18 /Applications/microchip/xc32/v2.41/bin/bin/../../lib/gcc/pic32mx/4.8.3/../../../../pic32mx/lib/speed/libm.a(fpcmp.o)
 .reginfo       0x00000000       0x18 /Applications/microchip/xc32/v2.41/bin/bin/../../lib/gcc/pic32mx/4.8.3/../../../../pic32mx/lib/speed/libm.a(fptodp.o)
 .reginfo       0x00000000       0x18 /Applications/microchip/xc32/v2.41/bin/bin/../../lib/gcc/pic32mx/4.8.3/../../../../pic32mx/lib/speed/libm.a(fptoul.o)
 .reginfo       0x00000000       0x18 /Applications/microchip/xc32/v2.41/bin/bin/../../lib/gcc/pic32mx/4.8.3/../../../../pic32mx/lib/speed/libm.a(litodp.o)
 .reginfo       0x00000000       0x18 /Applications/microchip/xc32/v2.41/bin/bin/../../lib/gcc/pic32mx/4.8.3/../../../../pic32mx/lib/speed/libm.a(sitofp.o)
 .reginfo       0x00000000       0x18 /Applications/microchip/xc32/v2.41/bin/bin/../../lib/gcc/pic32mx/4.8.3/../../../../pic32mx/lib/speed/libm.a(s_lib_ver.o)
 .reginfo       0x00000000       0x18 /Applications/microchip/xc32/v2.41/bin/bin/../../lib/gcc/pic32mx/4.8.3/../../../../pic32mx/lib/speed/libm.a(dpmodf.o)
 .reginfo       0x00000000       0x18 /Applications/microchip/xc32/v2.41/bin/bin/../../lib/gcc/pic32mx/4.8.3/../../../../pic32mx/lib/speed/libm.a(pow32.o)
 .reginfo       0x00000000       0x18 /Applications/microchip/xc32/v2.41/bin/bin/../../lib/gcc/pic32mx/4.8.3/../../../../pic32mx/lib/speed/libm.a(log32.o)
 .reginfo       0x00000000       0x18 /Applications/microchip/xc32/v2.41/bin/bin/../../lib/gcc/pic32mx/4.8.3/../../../../pic32mx/lib/speed/libm.a(exadd.o)
 .reginfo       0x00000000       0x18 /Applications/microchip/xc32/v2.41/bin/bin/../../lib/gcc/pic32mx/4.8.3/../../../../pic32mx/lib/speed/libm.a(exdiv.o)
 .reginfo       0x00000000       0x18 /Applications/microchip/xc32/v2.41/bin/bin/../../lib/gcc/pic32mx/4.8.3/../../../../pic32mx/lib/speed/libm.a(exmul.o)
 .reginfo       0x00000000       0x18 /Applications/microchip/xc32/v2.41/bin/bin/../../lib/gcc/pic32mx/4.8.3/../../../../pic32mx/lib/speed/libm.a(sigmax.o)
 .reginfo       0x00000000       0x18 /Applications/microchip/xc32/v2.41/bin/bin/../../lib/gcc/pic32mx/4.8.3/../../../../pic32mx/lib/speed/libm.a(exp32.o)
 .reginfo       0x00000000       0x18 /Applications/microchip/xc32/v2.41/bin/bin/../../lib/gcc/pic32mx/4.8.3/../../../../pic32mx/lib/speed/libpic32.a(sbrk.o)
 .reginfo       0x00000000       0x18 /Applications/microchip/xc32/v2.41/bin/bin/../../lib/gcc/pic32mx/4.8.3/../../../../pic32mx/lib/speed/libpic32.a(errno.o)
 .reginfo       0x00000000       0x18 /Applications/microchip/xc32/v2.41/bin/bin/../../lib/gcc/pic32mx/4.8.3/../../../../pic32mx/lib/speed/libpic32.a(isinf.o)
 .reginfo       0x00000000       0x18 /Applications/microchip/xc32/v2.41/bin/bin/../../lib/gcc/pic32mx/4.8.3/../../../../pic32mx/lib/speed/libe.a(_unorddf2.o)

Memory Configuration

Name             Origin             Length             Attributes
kseg0_program_mem 0x9d000000         0x00080000         xr
kseg0_boot_mem   0x9fc00490         0x00000970
exception_mem    0x9fc01000         0x00001000
kseg1_boot_mem   0xbfc00000         0x00000490
debug_exec_mem   0xbfc02000         0x00000ff0
config3          0xbfc02ff0         0x00000004
config2          0xbfc02ff4         0x00000004
config1          0xbfc02ff8         0x00000004
config0          0xbfc02ffc         0x00000004
kseg1_data_mem   0xa0000000         0x00020000         w !x
sfrs             0xbf800000         0x00100000
configsfrs       0xbfc02ff0         0x00000010
*default*        0x00000000         0xffffffff

Linker script and memory map

LOAD /Applications/microchip/xc32/v2.41/bin/bin/../../lib/gcc/pic32mx/4.8.3/../../../../pic32mx/lib/speed/debug-exception-return.o
LOAD build/default/production/_ext/1472/config.o
LOAD build/default/production/_ext/1472/interrupts.o
LOAD build/default/production/_ext/1472/main.o
LOAD ../../PLIB2_GIT/PLIB.X/dist/default/production/PLIB.X.a
                0x00000001                __MPLAB_BUILD = 0x1
                0x00004e20                _min_heap_size = 0x4e20
                0x00000000                _min_stack_size = 0x0
LOAD /var/folders/nb/nscgpnq50m3_t2k_4gt8dg080000gn/T//cckU0PY8.o
LOAD /var/folders/nb/nscgpnq50m3_t2k_4gt8dg080000gn/T//cc2Byh3D.o
LOAD /var/folders/nb/nscgpnq50m3_t2k_4gt8dg080000gn/T//ccoIGrQV.o
LOAD /Applications/microchip/xc32/v2.41/bin/bin/../../lib/gcc/pic32mx/4.8.3/../../../../pic32mx/lib/speed/pic32_software_reset.o
                0x00000400                PROVIDE (_min_stack_size, 0x400)
START GROUP
LOAD /Applications/microchip/xc32/v2.41/bin/bin/../../lib/gcc/pic32mx/4.8.3/../../../../pic32mx/lib/./proc/32MX795F512L/processor.o
END GROUP
START GROUP
LOAD libmchp_peripheral.a
END GROUP
START GROUP
LOAD libmchp_peripheral_32MX795F512L.a
END GROUP
                0x00000001                PROVIDE (_vector_spacing, 0x1)
                0x9fc01000                PROVIDE (_ebase_address, 0x9fc01000)
                0xbfc00000                _RESET_ADDR = 0xbfc00000
                0xbfc00380                _BEV_EXCPT_ADDR = 0xbfc00380
                0xbfc00480                _DBG_EXCPT_ADDR = 0xbfc00480
                0xbfc02000                _DBG_CODE_ADDR = 0xbfc02000
                0x00000ff0                _DBG_CODE_SIZE = 0xff0
                0x9fc01180                _GEN_EXCPT_ADDR = (_ebase_address + 0x180)

.config_BFC02FF0
                0xbfc02ff0        0x4
 *(.config_BFC02FF0)
 .config_BFC02FF0
                0xbfc02ff0        0x4 build/default/production/_ext/1472/main.o

.config_BFC02FF4
                0xbfc02ff4        0x4
 *(.config_BFC02FF4)
 .config_BFC02FF4
                0xbfc02ff4        0x4 build/default/production/_ext/1472/main.o

.config_BFC02FF8
                0xbfc02ff8        0x4
 *(.config_BFC02FF8)
 .config_BFC02FF8
                0xbfc02ff8        0x4 build/default/production/_ext/1472/main.o

.config_BFC02FFC
                0xbfc02ffc        0x4
 *(.config_BFC02FFC)
 .config_BFC02FFC
                0xbfc02ffc        0x4 build/default/production/_ext/1472/main.o
                0xbfc02000                PROVIDE (_DBG_CODE_ADDR, 0xbfc02000)
                0x00000ff0                PROVIDE (_DBG_CODE_SIZE, 0xff0)

.reset          0xbfc00000      0x19c
 *(.reset)
 .reset         0xbfc00000        0x8 /var/folders/nb/nscgpnq50m3_t2k_4gt8dg080000gn/T//cckU0PY8.o
                0xbfc00000                _reset
 *(.reset.startup)
 .reset.startup
                0xbfc00008      0x194 /var/folders/nb/nscgpnq50m3_t2k_4gt8dg080000gn/T//cckU0PY8.o
                0xbfc00008                _startup

.bev_excpt      0xbfc00380       0x10
 *(.bev_handler)
 .bev_handler   0xbfc00380       0x10 /var/folders/nb/nscgpnq50m3_t2k_4gt8dg080000gn/T//cckU0PY8.o

.dbg_excpt      0xbfc00480        0x0
                0xbfc00480                . = (. + DEFINED (_DEBUGGER)?0x8:0x0)

.dbg_code       0xbfc02000        0x0
                0xbfc02000                . = (. + DEFINED (_DEBUGGER)?_DBG_CODE_SIZE:0x0)

.app_excpt      0x9fc01180       0x10
 *(.gen_handler)
 .gen_handler   0x9fc01180       0x10 /var/folders/nb/nscgpnq50m3_t2k_4gt8dg080000gn/T//cckU0PY8.o

.vector_0       0x9fc01200        0x8
 *(.vector_0)
 .vector_0      0x9fc01200        0x8 /Applications/microchip/xc32/v2.41/bin/bin/../../lib/gcc/pic32mx/4.8.3/../../../../pic32mx/lib/speed/libpic32.a(vector0.o)
                0x9fc01200                __vector_dispatch_0
                0x00000001                ASSERT (((_vector_spacing == 0x0) || (SIZEOF (.vector_0) <= (_vector_spacing << 0x5))), function at exception vector 0 too large)

.vector_1       0x9fc01220        0x8
 *(.vector_1)
 .vector_1      0x9fc01220        0x8 /Applications/microchip/xc32/v2.41/bin/bin/../../lib/gcc/pic32mx/4.8.3/../../../../pic32mx/lib/speed/libpic32.a(vector1.o)
                0x9fc01220                __vector_dispatch_1
                0x00000001                ASSERT (((_vector_spacing == 0x0) || (SIZEOF (.vector_1) <= (_vector_spacing << 0x5))), function at exception vector 1 too large)

.vector_2       0x9fc01240        0x8
 *(.vector_2)
 .vector_2      0x9fc01240        0x8 /Applications/microchip/xc32/v2.41/bin/bin/../../lib/gcc/pic32mx/4.8.3/../../../../pic32mx/lib/speed/libpic32.a(vector2.o)
                0x9fc01240                __vector_dispatch_2
                0x00000001                ASSERT (((_vector_spacing == 0x0) || (SIZEOF (.vector_2) <= (_vector_spacing << 0x5))), function at exception vector 2 too large)

.vector_3       0x9fc01260        0x8
 *(.vector_3)
 .vector_3      0x9fc01260        0x8 /Applications/microchip/xc32/v2.41/bin/bin/../../lib/gcc/pic32mx/4.8.3/../../../../pic32mx/lib/speed/libpic32.a(vector3.o)
                0x9fc01260                __vector_dispatch_3
                0x00000001                ASSERT (((_vector_spacing == 0x0) || (SIZEOF (.vector_3) <= (_vector_spacing << 0x5))), function at exception vector 3 too large)

.vector_4       0x9fc01280        0x8
 *(.vector_4)
 .vector_4      0x9fc01280        0x8 build/default/production/_ext/1472/interrupts.o
                0x9fc01280                __vector_dispatch_4
                0x00000001                ASSERT (((_vector_spacing == 0x0) || (SIZEOF (.vector_4) <= (_vector_spacing << 0x5))), function at exception vector 4 too large)

.vector_5       0x9fc012a0        0x8
 *(.vector_5)
 .vector_5      0x9fc012a0        0x8 /Applications/microchip/xc32/v2.41/bin/bin/../../lib/gcc/pic32mx/4.8.3/../../../../pic32mx/lib/speed/libpic32.a(vector5.o)
                0x9fc012a0                __vector_dispatch_5
                0x00000001                ASSERT (((_vector_spacing == 0x0) || (SIZEOF (.vector_5) <= (_vector_spacing << 0x5))), function at exception vector 5 too large)

.vector_6       0x9fc012c0        0x8
 *(.vector_6)
 .vector_6      0x9fc012c0        0x8 /Applications/microchip/xc32/v2.41/bin/bin/../../lib/gcc/pic32mx/4.8.3/../../../../pic32mx/lib/speed/libpic32.a(vector6.o)
                0x9fc012c0                __vector_dispatch_6
                0x00000001                ASSERT (((_vector_spacing == 0x0) || (SIZEOF (.vector_6) <= (_vector_spacing << 0x5))), function at exception vector 6 too large)

.vector_7       0x9fc012e0        0x8
 *(.vector_7)
 .vector_7      0x9fc012e0        0x8 /Applications/microchip/xc32/v2.41/bin/bin/../../lib/gcc/pic32mx/4.8.3/../../../../pic32mx/lib/speed/libpic32.a(vector7.o)
                0x9fc012e0                __vector_dispatch_7
                0x00000001                ASSERT (((_vector_spacing == 0x0) || (SIZEOF (.vector_7) <= (_vector_spacing << 0x5))), function at exception vector 7 too large)

.vector_8       0x9fc01300        0x8
 *(.vector_8)
 .vector_8      0x9fc01300        0x8 build/default/production/_ext/1472/interrupts.o
                0x9fc01300                __vector_dispatch_8
                0x00000001                ASSERT (((_vector_spacing == 0x0) || (SIZEOF (.vector_8) <= (_vector_spacing << 0x5))), function at exception vector 8 too large)

.vector_9       0x9fc01320        0x8
 *(.vector_9)
 .vector_9      0x9fc01320        0x8 /Applications/microchip/xc32/v2.41/bin/bin/../../lib/gcc/pic32mx/4.8.3/../../../../pic32mx/lib/speed/libpic32.a(vector9.o)
                0x9fc01320                __vector_dispatch_9
                0x00000001                ASSERT (((_vector_spacing == 0x0) || (SIZEOF (.vector_9) <= (_vector_spacing << 0x5))), function at exception vector 9 too large)

.vector_10      0x9fc01340        0x8
 *(.vector_10)
 .vector_10     0x9fc01340        0x8 /Applications/microchip/xc32/v2.41/bin/bin/../../lib/gcc/pic32mx/4.8.3/../../../../pic32mx/lib/speed/libpic32.a(vector10.o)
                0x9fc01340                __vector_dispatch_10
                0x00000001                ASSERT (((_vector_spacing == 0x0) || (SIZEOF (.vector_10) <= (_vector_spacing << 0x5))), function at exception vector 10 too large)

.vector_11      0x9fc01360        0x8
 *(.vector_11)
 .vector_11     0x9fc01360        0x8 /Applications/microchip/xc32/v2.41/bin/bin/../../lib/gcc/pic32mx/4.8.3/../../../../pic32mx/lib/speed/libpic32.a(vector11.o)
                0x9fc01360                __vector_dispatch_11
                0x00000001                ASSERT (((_vector_spacing == 0x0) || (SIZEOF (.vector_11) <= (_vector_spacing << 0x5))), function at exception vector 11 too large)

.vector_12      0x9fc01380        0x8
 *(.vector_12)
 .vector_12     0x9fc01380        0x8 build/default/production/_ext/1472/interrupts.o
                0x9fc01380                __vector_dispatch_12
                0x00000001                ASSERT (((_vector_spacing == 0x0) || (SIZEOF (.vector_12) <= (_vector_spacing << 0x5))), function at exception vector 12 too large)

.vector_13      0x9fc013a0        0x8
 *(.vector_13)
 .vector_13     0x9fc013a0        0x8 /Applications/microchip/xc32/v2.41/bin/bin/../../lib/gcc/pic32mx/4.8.3/../../../../pic32mx/lib/speed/libpic32.a(vector13.o)
                0x9fc013a0                __vector_dispatch_13
                0x00000001                ASSERT (((_vector_spacing == 0x0) || (SIZEOF (.vector_13) <= (_vector_spacing << 0x5))), function at exception vector 13 too large)

.vector_14      0x9fc013c0        0x8
 *(.vector_14)
 .vector_14     0x9fc013c0        0x8 /Applications/microchip/xc32/v2.41/bin/bin/../../lib/gcc/pic32mx/4.8.3/../../../../pic32mx/lib/speed/libpic32.a(vector14.o)
                0x9fc013c0                __vector_dispatch_14
                0x00000001                ASSERT (((_vector_spacing == 0x0) || (SIZEOF (.vector_14) <= (_vector_spacing << 0x5))), function at exception vector 14 too large)

.vector_15      0x9fc013e0        0x8
 *(.vector_15)
 .vector_15     0x9fc013e0        0x8 /Applications/microchip/xc32/v2.41/bin/bin/../../lib/gcc/pic32mx/4.8.3/../../../../pic32mx/lib/speed/libpic32.a(vector15.o)
                0x9fc013e0                __vector_dispatch_15
                0x00000001                ASSERT (((_vector_spacing == 0x0) || (SIZEOF (.vector_15) <= (_vector_spacing << 0x5))), function at exception vector 15 too large)

.vector_16      0x9fc01400        0x8
 *(.vector_16)
 .vector_16     0x9fc01400        0x8 build/default/production/_ext/1472/interrupts.o
                0x9fc01400                __vector_dispatch_16
                0x00000001                ASSERT (((_vector_spacing == 0x0) || (SIZEOF (.vector_16) <= (_vector_spacing << 0x5))), function at exception vector 16 too large)

.vector_17      0x9fc01420        0x8
 *(.vector_17)
 .vector_17     0x9fc01420        0x8 /Applications/microchip/xc32/v2.41/bin/bin/../../lib/gcc/pic32mx/4.8.3/../../../../pic32mx/lib/speed/libpic32.a(vector17.o)
                0x9fc01420                __vector_dispatch_17
                0x00000001                ASSERT (((_vector_spacing == 0x0) || (SIZEOF (.vector_17) <= (_vector_spacing << 0x5))), function at exception vector 17 too large)

.vector_18      0x9fc01440        0x8
 *(.vector_18)
 .vector_18     0x9fc01440        0x8 /Applications/microchip/xc32/v2.41/bin/bin/../../lib/gcc/pic32mx/4.8.3/../../../../pic32mx/lib/speed/libpic32.a(vector18.o)
                0x9fc01440                __vector_dispatch_18
                0x00000001                ASSERT (((_vector_spacing == 0x0) || (SIZEOF (.vector_18) <= (_vector_spacing << 0x5))), function at exception vector 18 too large)

.vector_19      0x9fc01460        0x8
 *(.vector_19)
 .vector_19     0x9fc01460        0x8 /Applications/microchip/xc32/v2.41/bin/bin/../../lib/gcc/pic32mx/4.8.3/../../../../pic32mx/lib/speed/libpic32.a(vector19.o)
                0x9fc01460                __vector_dispatch_19
                0x00000001                ASSERT (((_vector_spacing == 0x0) || (SIZEOF (.vector_19) <= (_vector_spacing << 0x5))), function at exception vector 19 too large)

.vector_20      0x9fc01480        0x8
 *(.vector_20)
 .vector_20     0x9fc01480        0x8 build/default/production/_ext/1472/interrupts.o
                0x9fc01480                __vector_dispatch_20
                0x00000001                ASSERT (((_vector_spacing == 0x0) || (SIZEOF (.vector_20) <= (_vector_spacing << 0x5))), function at exception vector 20 too large)

.vector_21      0x9fc014a0        0x8
 *(.vector_21)
 .vector_21     0x9fc014a0        0x8 /Applications/microchip/xc32/v2.41/bin/bin/../../lib/gcc/pic32mx/4.8.3/../../../../pic32mx/lib/speed/libpic32.a(vector21.o)
                0x9fc014a0                __vector_dispatch_21
                0x00000001                ASSERT (((_vector_spacing == 0x0) || (SIZEOF (.vector_21) <= (_vector_spacing << 0x5))), function at exception vector 21 too large)

.vector_22      0x9fc014c0        0x8
 *(.vector_22)
 .vector_22     0x9fc014c0        0x8 /Applications/microchip/xc32/v2.41/bin/bin/../../lib/gcc/pic32mx/4.8.3/../../../../pic32mx/lib/speed/libpic32.a(vector22.o)
                0x9fc014c0                __vector_dispatch_22
                0x00000001                ASSERT (((_vector_spacing == 0x0) || (SIZEOF (.vector_22) <= (_vector_spacing << 0x5))), function at exception vector 22 too large)

.vector_23      0x9fc014e0        0x8
 *(.vector_23)
 .vector_23     0x9fc014e0        0x8 build/default/production/_ext/1472/interrupts.o
                0x9fc014e0                __vector_dispatch_23
                0x00000001                ASSERT (((_vector_spacing == 0x0) || (SIZEOF (.vector_23) <= (_vector_spacing << 0x5))), function at exception vector 23 too large)

.vector_24      0x9fc01500        0x8
 *(.vector_24)
 .vector_24     0x9fc01500        0x8 build/default/production/_ext/1472/interrupts.o
                0x9fc01500                __vector_dispatch_24
                0x00000001                ASSERT (((_vector_spacing == 0x0) || (SIZEOF (.vector_24) <= (_vector_spacing << 0x5))), function at exception vector 24 too large)

.vector_25      0x9fc01520        0x8
 *(.vector_25)
 .vector_25     0x9fc01520        0x8 build/default/production/_ext/1472/interrupts.o
                0x9fc01520                __vector_dispatch_25
                0x00000001                ASSERT (((_vector_spacing == 0x0) || (SIZEOF (.vector_25) <= (_vector_spacing << 0x5))), function at exception vector 25 too large)

.vector_26      0x9fc01540        0x8
 *(.vector_26)
 .vector_26     0x9fc01540        0x8 build/default/production/_ext/1472/interrupts.o
                0x9fc01540                __vector_dispatch_26
                0x00000001                ASSERT (((_vector_spacing == 0x0) || (SIZEOF (.vector_26) <= (_vector_spacing << 0x5))), function at exception vector 26 too large)

.vector_27      0x9fc01560        0x8
 *(.vector_27)
 .vector_27     0x9fc01560        0x8 build/default/production/_ext/1472/interrupts.o
                0x9fc01560                __vector_dispatch_27
                0x00000001                ASSERT (((_vector_spacing == 0x0) || (SIZEOF (.vector_27) <= (_vector_spacing << 0x5))), function at exception vector 27 too large)

.vector_28      0x9fc01580        0x8
 *(.vector_28)
 .vector_28     0x9fc01580        0x8 /Applications/microchip/xc32/v2.41/bin/bin/../../lib/gcc/pic32mx/4.8.3/../../../../pic32mx/lib/speed/libpic32.a(vector28.o)
                0x9fc01580                __vector_dispatch_28
                0x00000001                ASSERT (((_vector_spacing == 0x0) || (SIZEOF (.vector_28) <= (_vector_spacing << 0x5))), function at exception vector 28 too large)

.vector_29      0x9fc015a0        0x8
 *(.vector_29)
 .vector_29     0x9fc015a0        0x8 /Applications/microchip/xc32/v2.41/bin/bin/../../lib/gcc/pic32mx/4.8.3/../../../../pic32mx/lib/speed/libpic32.a(vector29.o)
                0x9fc015a0                __vector_dispatch_29
                0x00000001                ASSERT (((_vector_spacing == 0x0) || (SIZEOF (.vector_29) <= (_vector_spacing << 0x5))), function at exception vector 29 too large)

.vector_30      0x9fc015c0        0x8
 *(.vector_30)
 .vector_30     0x9fc015c0        0x8 /Applications/microchip/xc32/v2.41/bin/bin/../../lib/gcc/pic32mx/4.8.3/../../../../pic32mx/lib/speed/libpic32.a(vector30.o)
                0x9fc015c0                __vector_dispatch_30
                0x00000001                ASSERT (((_vector_spacing == 0x0) || (SIZEOF (.vector_30) <= (_vector_spacing << 0x5))), function at exception vector 30 too large)

.vector_31      0x9fc015e0        0x8
 *(.vector_31)
 .vector_31     0x9fc015e0        0x8 build/default/production/_ext/1472/interrupts.o
                0x9fc015e0                __vector_dispatch_31
                0x00000001                ASSERT (((_vector_spacing == 0x0) || (SIZEOF (.vector_31) <= (_vector_spacing << 0x5))), function at exception vector 31 too large)

.vector_32      0x9fc01600        0x8
 *(.vector_32)
 .vector_32     0x9fc01600        0x8 build/default/production/_ext/1472/interrupts.o
                0x9fc01600                __vector_dispatch_32
                0x00000001                ASSERT (((_vector_spacing == 0x0) || (SIZEOF (.vector_32) <= (_vector_spacing << 0x5))), function at exception vector 32 too large)

.vector_33      0x9fc01620        0x8
 *(.vector_33)
 .vector_33     0x9fc01620        0x8 build/default/production/_ext/1472/interrupts.o
                0x9fc01620                __vector_dispatch_33
                0x00000001                ASSERT (((_vector_spacing == 0x0) || (SIZEOF (.vector_33) <= (_vector_spacing << 0x5))), function at exception vector 33 too large)

.vector_34      0x9fc01640        0x8
 *(.vector_34)
 .vector_34     0x9fc01640        0x8 /Applications/microchip/xc32/v2.41/bin/bin/../../lib/gcc/pic32mx/4.8.3/../../../../pic32mx/lib/speed/libpic32.a(vector34.o)
                0x9fc01640                __vector_dispatch_34
                0x00000001                ASSERT (((_vector_spacing == 0x0) || (SIZEOF (.vector_34) <= (_vector_spacing << 0x5))), function at exception vector 34 too large)

.vector_35      0x9fc01660        0x8
 *(.vector_35)
 .vector_35     0x9fc01660        0x8 /Applications/microchip/xc32/v2.41/bin/bin/../../lib/gcc/pic32mx/4.8.3/../../../../pic32mx/lib/speed/libpic32.a(vector35.o)
                0x9fc01660                __vector_dispatch_35
                0x00000001                ASSERT (((_vector_spacing == 0x0) || (SIZEOF (.vector_35) <= (_vector_spacing << 0x5))), function at exception vector 35 too large)

.vector_36      0x9fc01680        0x8
 *(.vector_36)
 .vector_36     0x9fc01680        0x8 build/default/production/_ext/1472/interrupts.o
                0x9fc01680                __vector_dispatch_36
                0x00000001                ASSERT (((_vector_spacing == 0x0) || (SIZEOF (.vector_36) <= (_vector_spacing << 0x5))), function at exception vector 36 too large)

.vector_37      0x9fc016a0        0x8
 *(.vector_37)
 .vector_37     0x9fc016a0        0x8 build/default/production/_ext/1472/interrupts.o
                0x9fc016a0                __vector_dispatch_37
                0x00000001                ASSERT (((_vector_spacing == 0x0) || (SIZEOF (.vector_37) <= (_vector_spacing << 0x5))), function at exception vector 37 too large)

.vector_38      0x9fc016c0        0x8
 *(.vector_38)
 .vector_38     0x9fc016c0        0x8 build/default/production/_ext/1472/interrupts.o
                0x9fc016c0                __vector_dispatch_38
                0x00000001                ASSERT (((_vector_spacing == 0x0) || (SIZEOF (.vector_38) <= (_vector_spacing << 0x5))), function at exception vector 38 too large)

.vector_39      0x9fc016e0        0x8
 *(.vector_39)
 .vector_39     0x9fc016e0        0x8 build/default/production/_ext/1472/interrupts.o
                0x9fc016e0                __vector_dispatch_39
                0x00000001                ASSERT (((_vector_spacing == 0x0) || (SIZEOF (.vector_39) <= (_vector_spacing << 0x5))), function at exception vector 39 too large)

.vector_40      0x9fc01700        0x8
 *(.vector_40)
 .vector_40     0x9fc01700        0x8 build/default/production/_ext/1472/interrupts.o
                0x9fc01700                __vector_dispatch_40
                0x00000001                ASSERT (((_vector_spacing == 0x0) || (SIZEOF (.vector_40) <= (_vector_spacing << 0x5))), function at exception vector 40 too large)

.vector_41      0x9fc01720        0x8
 *(.vector_41)
 .vector_41     0x9fc01720        0x8 build/default/production/_ext/1472/interrupts.o
                0x9fc01720                __vector_dispatch_41
                0x00000001                ASSERT (((_vector_spacing == 0x0) || (SIZEOF (.vector_41) <= (_vector_spacing << 0x5))), function at exception vector 41 too large)

.vector_42      0x9fc01740        0x8
 *(.vector_42)
 .vector_42     0x9fc01740        0x8 build/default/production/_ext/1472/interrupts.o
                0x9fc01740                __vector_dispatch_42
                0x00000001                ASSERT (((_vector_spacing == 0x0) || (SIZEOF (.vector_42) <= (_vector_spacing << 0x5))), function at exception vector 42 too large)

.vector_43      0x9fc01760        0x8
 *(.vector_43)
 .vector_43     0x9fc01760        0x8 build/default/production/_ext/1472/interrupts.o
                0x9fc01760                __vector_dispatch_43
                0x00000001                ASSERT (((_vector_spacing == 0x0) || (SIZEOF (.vector_43) <= (_vector_spacing << 0x5))), function at exception vector 43 too large)

.vector_44      0x9fc01780        0x8
 *(.vector_44)
 .vector_44     0x9fc01780        0x8 /Applications/microchip/xc32/v2.41/bin/bin/../../lib/gcc/pic32mx/4.8.3/../../../../pic32mx/lib/speed/libpic32.a(vector44.o)
                0x9fc01780                __vector_dispatch_44
                0x00000001                ASSERT (((_vector_spacing == 0x0) || (SIZEOF (.vector_44) <= (_vector_spacing << 0x5))), function at exception vector 44 too large)

.vector_45      0x9fc017a0        0x8
 *(.vector_45)
 .vector_45     0x9fc017a0        0x8 /Applications/microchip/xc32/v2.41/bin/bin/../../lib/gcc/pic32mx/4.8.3/../../../../pic32mx/lib/speed/libpic32.a(vector45.o)
                0x9fc017a0                __vector_dispatch_45
                0x00000001                ASSERT (((_vector_spacing == 0x0) || (SIZEOF (.vector_45) <= (_vector_spacing << 0x5))), function at exception vector 45 too large)

.vector_46      0x9fc017c0        0x8
 *(.vector_46)
 .vector_46     0x9fc017c0        0x8 build/default/production/_ext/1472/interrupts.o
                0x9fc017c0                __vector_dispatch_46
                0x00000001                ASSERT (((_vector_spacing == 0x0) || (SIZEOF (.vector_46) <= (_vector_spacing << 0x5))), function at exception vector 46 too large)

.vector_47      0x9fc017e0        0x8
 *(.vector_47)
 .vector_47     0x9fc017e0        0x8 build/default/production/_ext/1472/interrupts.o
                0x9fc017e0                __vector_dispatch_47
                0x00000001                ASSERT (((_vector_spacing == 0x0) || (SIZEOF (.vector_47) <= (_vector_spacing << 0x5))), function at exception vector 47 too large)

.vector_48      0x9fc01800        0x8
 *(.vector_48)
 .vector_48     0x9fc01800        0x8 /Applications/microchip/xc32/v2.41/bin/bin/../../lib/gcc/pic32mx/4.8.3/../../../../pic32mx/lib/speed/libpic32.a(vector48.o)
                0x9fc01800                __vector_dispatch_48
                0x00000001                ASSERT (((_vector_spacing == 0x0) || (SIZEOF (.vector_48) <= (_vector_spacing << 0x5))), function at exception vector 48 too large)

.vector_49      0x9fc01820        0x8
 *(.vector_49)
 .vector_49     0x9fc01820        0x8 build/default/production/_ext/1472/interrupts.o
                0x9fc01820                __vector_dispatch_49
                0x00000001                ASSERT (((_vector_spacing == 0x0) || (SIZEOF (.vector_49) <= (_vector_spacing << 0x5))), function at exception vector 49 too large)

.vector_50      0x9fc01840        0x8
 *(.vector_50)
 .vector_50     0x9fc01840        0x8 build/default/production/_ext/1472/interrupts.o
                0x9fc01840                __vector_dispatch_50
                0x00000001                ASSERT (((_vector_spacing == 0x0) || (SIZEOF (.vector_50) <= (_vector_spacing << 0x5))), function at exception vector 50 too large)

.vector_51      0x9fc01860        0x8
 *(.vector_51)
 .vector_51     0x9fc01860        0x8 build/default/production/_ext/1472/interrupts.o
                0x9fc01860                __vector_dispatch_51
                0x00000001                ASSERT (((_vector_spacing == 0x0) || (SIZEOF (.vector_51) <= (_vector_spacing << 0x5))), function at exception vector 51 too large)

.vector_52      0x9fc01880        0x0
 *(.vector_52)
                0x00000001                ASSERT (((_vector_spacing == 0x0) || (SIZEOF (.vector_52) <= (_vector_spacing << 0x5))), function at exception vector 52 too large)

.vector_53      0x9fc018a0        0x0
 *(.vector_53)
                0x00000001                ASSERT (((_vector_spacing == 0x0) || (SIZEOF (.vector_53) <= (_vector_spacing << 0x5))), function at exception vector 53 too large)

.vector_54      0x9fc018c0        0x0
 *(.vector_54)
                0x00000001                ASSERT (((_vector_spacing == 0x0) || (SIZEOF (.vector_54) <= (_vector_spacing << 0x5))), function at exception vector 54 too large)

.vector_55      0x9fc018e0        0x0
 *(.vector_55)
                0x00000001                ASSERT (((_vector_spacing == 0x0) || (SIZEOF (.vector_55) <= (_vector_spacing << 0x5))), function at exception vector 55 too large)

.vector_56      0x9fc01900        0x0
 *(.vector_56)
                0x00000001                ASSERT (((_vector_spacing == 0x0) || (SIZEOF (.vector_56) <= (_vector_spacing << 0x5))), function at exception vector 56 too large)

.vector_57      0x9fc01920        0x0
 *(.vector_57)
                0x00000001                ASSERT (((_vector_spacing == 0x0) || (SIZEOF (.vector_57) <= (_vector_spacing << 0x5))), function at exception vector 57 too large)

.vector_58      0x9fc01940        0x0
 *(.vector_58)
                0x00000001                ASSERT (((_vector_spacing == 0x0) || (SIZEOF (.vector_58) <= (_vector_spacing << 0x5))), function at exception vector 58 too large)

.vector_59      0x9fc01960        0x0
 *(.vector_59)
                0x00000001                ASSERT (((_vector_spacing == 0x0) || (SIZEOF (.vector_59) <= (_vector_spacing << 0x5))), function at exception vector 59 too large)

.vector_60      0x9fc01980        0x0
 *(.vector_60)
                0x00000001                ASSERT (((_vector_spacing == 0x0) || (SIZEOF (.vector_60) <= (_vector_spacing << 0x5))), function at exception vector 60 too large)

.vector_61      0x9fc019a0        0x0
 *(.vector_61)
                0x00000001                ASSERT (((_vector_spacing == 0x0) || (SIZEOF (.vector_61) <= (_vector_spacing << 0x5))), function at exception vector 61 too large)

.vector_62      0x9fc019c0        0x0
 *(.vector_62)
                0x00000001                ASSERT (((_vector_spacing == 0x0) || (SIZEOF (.vector_62) <= (_vector_spacing << 0x5))), function at exception vector 62 too large)

.vector_63      0x9fc019e0        0x0
 *(.vector_63)
                0x00000001                ASSERT (((_vector_spacing == 0x0) || (SIZEOF (.vector_63) <= (_vector_spacing << 0x5))), function at exception vector 63 too large)

.startup
 *(.startup)

.text           0x9d000000        0x0
 *(.stub .gnu.linkonce.t.*)
 *(.text.*personality*)
 *(.mips16.fn.*)
 *(.mips16.call.*)
 *(.gnu.warning)
                0x9d000000                . = ALIGN (0x4)

.init           0x9d000000        0x0
 *crti.o(.init)
 *crtbegin.o(.init)
 *(EXCLUDE_FILE(*crtn.o *crtend?.o *crtend.o) .init)
 *crtend.o(.init)
 *crtn.o(.init)
                0x9d000000                . = ALIGN (0x4)

.fini           0x9d000000        0x0
 *(.fini)
                0x9d000000                . = ALIGN (0x4)

.preinit_array  0x9d000000        0x0
                0x9d000000                PROVIDE (__preinit_array_start, .)
 *(.preinit_array)
                0x9d000000                PROVIDE (__preinit_array_end, .)
                0x9d000000                . = ALIGN (0x4)

.init_array     0x9d000000        0x0
                0x9d000000                PROVIDE (__init_array_start, .)
 *(SORT(.init_array.*))
 *(.init_array)
                0x9d000000                PROVIDE (__init_array_end, .)
                0x9d000000                . = ALIGN (0x4)

.fini_array     0x9d000000        0x0
                0x9d000000                PROVIDE (__fini_array_start, .)
 *(SORT(.fini_array.*))
 *(.fini_array)
                0x9d000000                PROVIDE (__fini_array_end, .)
                0x9d000000                . = ALIGN (0x4)

.ctors          0x9d000000        0x0
 *crtbegin.o(.ctors)
 *crtbegin?.o(.ctors)
 *(EXCLUDE_FILE(*crtend?.o *crtend.o) .ctors)
 *(SORT(.ctors.*))
 *(.ctors)
                0x9d000000                . = ALIGN (0x4)

.dtors          0x9d000000        0x0
 *crtbegin.o(.dtors)
 *crtbegin?.o(.dtors)
 *(EXCLUDE_FILE(*crtend?.o *crtend.o) .dtors)
 *(SORT(.dtors.*))
 *(.dtors)
                0x9d000000                . = ALIGN (0x4)

.rodata         0x9d000000        0x0
 *(.gnu.linkonce.r.*)
 *(.rodata1)
                0x9d000000                . = ALIGN (0x4)

.sdata2         0x9fc00490        0x0
 *(.sdata2 .sdata2.* .gnu.linkonce.s2.*)
                0x9fc00490                . = ALIGN (0x4)

.sbss2          0x9fc00490        0x0
 *(.sbss2 .sbss2.* .gnu.linkonce.sb2.*)
                0x9fc00490                . = ALIGN (0x4)

.eh_frame_hdr
 *(.eh_frame_hdr)
                0x9fc00490                . = ALIGN (0x4)

.eh_frame
 *(.eh_frame)
                0x9fc00490                . = ALIGN (0x4)

.gcc_except_table
 *(.gcc_except_table .gcc_except_table.*)
                0x9fc00490                . = ALIGN (0x4)

.dbg_data       0xa0000000        0x0
                0xa0000000                . = (. + DEFINED (_DEBUGGER)?0x200:0x0)

.jcr            0xa0000000        0x0
 *(.jcr)
                0xa0000000                . = ALIGN (0x4)

.eh_frame
 *(.eh_frame)
                0xa0000000                . = ALIGN (0x4)

.gcc_except_table
 *(.gcc_except_table .gcc_except_table.*)
                0xa0000000                . = ALIGN (0x4)

.persist        0xa0000000        0x0
                0xa0000000                _persist_begin = .
 *(.persist .persist.*)
 *(.pbss .pbss.*)
                0xa0000000                . = ALIGN (0x4)
                0xa0000000                _persist_end = .

.data           0xa0000000        0x0
 *(.gnu.linkonce.d.*)
 *(.data1)
                0xa0000000                . = ALIGN (0x4)
                0xa0000000                . = .
                0xa0007ff0                _gp = (ALIGN (0x10) + 0x7ff0)

.got            0xa0000000        0x0
 *(.got.plt)
 *(.got)
                0xa0000000                . = ALIGN (0x4)

.sdata          0xa0000000       0x5c
                0xa0000000                _sdata_begin = .
 *(.sdata .sdata.* .gnu.linkonce.s.*)
 .sdata         0xa0000000       0x4c ../../PLIB2_GIT/PLIB.X/dist/default/production/PLIB.X.a(_EXAMPLES_.o)
 .sdata         0xa000004c        0x8 ../../PLIB2_GIT/PLIB.X/dist/default/production/PLIB.X.a(_LOG.o)
 .sdata         0xa0000054        0x8 ../../PLIB2_GIT/PLIB.X/dist/default/production/PLIB.X.a(ble.o)
                0xa000005c                . = ALIGN (0x4)
                0xa000005c                _sdata_end = .

.lit8
 *(.lit8)

.lit4
 *(.lit4)
                0xa000005c                . = ALIGN (0x4)
                0xa000005c                _data_end = .
                0xa000005c                _bss_begin = .

.sbss           0xa000005c      0x170
                0xa000005c                _sbss_begin = .
 *(.dynsbss)
 *(.sbss .sbss.* .gnu.linkonce.sb.*)
 *fill*         0xa000005c        0x4 
 .sbss          0xa0000060       0x30 build/default/production/_ext/1472/main.o
 .sbss          0xa0000090       0x78 ../../PLIB2_GIT/PLIB.X/dist/default/production/PLIB.X.a(_EXAMPLES_.o)
 .sbss          0xa0000108       0x58 ../../PLIB2_GIT/PLIB.X/dist/default/production/PLIB.X.a(sd_card.o)
 .sbss          0xa0000160        0x4 ../../PLIB2_GIT/PLIB.X/dist/default/production/PLIB.X.a(e_mcp23s17.o)
 .sbss          0xa0000164        0x4 ../../PLIB2_GIT/PLIB.X/dist/default/production/PLIB.X.a(ble.o)
 .sbss          0xa0000168       0x10 ../../PLIB2_GIT/PLIB.X/dist/default/production/PLIB.X.a(utilities.o)
 .sbss          0xa0000178        0x8 ../../PLIB2_GIT/PLIB.X/dist/default/production/PLIB.X.a(software_pwm.o)
 .sbss          0xa0000180        0x4 ../../PLIB2_GIT/PLIB.X/dist/default/production/PLIB.X.a(s17_adc.o)
 .sbss          0xa0000184        0x4 ../../PLIB2_GIT/PLIB.X/dist/default/production/PLIB.X.a(s12_ports.o)
 .sbss          0xa0000188        0x8 ../../PLIB2_GIT/PLIB.X/dist/default/production/PLIB.X.a(s31_dma.o)
 .sbss          0xa0000190        0x4 ../../PLIB2_GIT/PLIB.X/dist/default/production/PLIB.X.a(s08_interrupts.o)
                0xa0000190                p_irq_data_priority
 .sbss          0xa0000194        0x8 ../../PLIB2_GIT/PLIB.X/dist/default/production/PLIB.X.a(s34_can.o)
 *(.scommon)
 *fill*         0xa000019c        0x4 
 .scommon       0xa00001a0       0x2c build/default/production/_ext/1472/config.o
                0xa00001a0                __led_status
                0xa00001a1                __current
                0xa00001a8                getTick
                0xa00001b0                __speed
                0xa00001b8                getLastCompare
                0xa00001c0                getTime
                0xa00001c8                __voltage
                0xa00001ca                __temperature
 .scommon       0xa00001cc        0x0 build/default/production/_ext/1472/interrupts.o
 .scommon       0xa00001cc        0x0 build/default/production/_ext/1472/main.o
 .scommon       0xa00001cc        0x0 ../../PLIB2_GIT/PLIB.X/dist/default/production/PLIB.X.a(_EXAMPLES_.o)
 .scommon       0xa00001cc        0x0 ../../PLIB2_GIT/PLIB.X/dist/default/production/PLIB.X.a(_LOG.o)
 .scommon       0xa00001cc        0x0 ../../PLIB2_GIT/PLIB.X/dist/default/production/PLIB.X.a(pink_lady.o)
 .scommon       0xa00001cc        0x0 ../../PLIB2_GIT/PLIB.X/dist/default/production/PLIB.X.a(sd_card.o)
 .scommon       0xa00001cc        0x0 ../../PLIB2_GIT/PLIB.X/dist/default/production/PLIB.X.a(e_mcp23s17.o)
 .scommon       0xa00001cc        0x0 ../../PLIB2_GIT/PLIB.X/dist/default/production/PLIB.X.a(e_at42qt2120.o)
 .scommon       0xa00001cc        0x0 ../../PLIB2_GIT/PLIB.X/dist/default/production/PLIB.X.a(e_pca9685.o)
 .scommon       0xa00001cc        0x0 ../../PLIB2_GIT/PLIB.X/dist/default/production/PLIB.X.a(e_veml7700.o)
 .scommon       0xa00001cc        0x0 ../../PLIB2_GIT/PLIB.X/dist/default/production/PLIB.X.a(e_tps92662.o)
 .scommon       0xa00001cc        0x0 ../../PLIB2_GIT/PLIB.X/dist/default/production/PLIB.X.a(e_grove_motor_tb6612fng.o)
 .scommon       0xa00001cc        0x0 ../../PLIB2_GIT/PLIB.X/dist/default/production/PLIB.X.a(ble.o)
 .scommon       0xa00001cc        0x0 ../../PLIB2_GIT/PLIB.X/dist/default/production/PLIB.X.a(utilities.o)
 .scommon       0xa00001cc        0x0 ../../PLIB2_GIT/PLIB.X/dist/default/production/PLIB.X.a(string_advance.o)
 .scommon       0xa00001cc        0x0 ../../PLIB2_GIT/PLIB.X/dist/default/production/PLIB.X.a(lin.o)
 .scommon       0xa00001cc        0x0 ../../PLIB2_GIT/PLIB.X/dist/default/production/PLIB.X.a(software_pwm.o)
 .scommon       0xa00001cc        0x0 ../../PLIB2_GIT/PLIB.X/dist/default/production/PLIB.X.a(crc_16.o)
 .scommon       0xa00001cc        0x0 ../../PLIB2_GIT/PLIB.X/dist/default/production/PLIB.X.a(errors.o)
 .scommon       0xa00001cc        0x0 ../../PLIB2_GIT/PLIB.X/dist/default/production/PLIB.X.a(s14_timers.o)
 .scommon       0xa00001cc        0x0 ../../PLIB2_GIT/PLIB.X/dist/default/production/PLIB.X.a(s23_spi.o)
 .scommon       0xa00001cc        0x0 ../../PLIB2_GIT/PLIB.X/dist/default/production/PLIB.X.a(s17_adc.o)
 .scommon       0xa00001cc        0x0 ../../PLIB2_GIT/PLIB.X/dist/default/production/PLIB.X.a(s16_output_compare.o)
 .scommon       0xa00001cc        0x0 ../../PLIB2_GIT/PLIB.X/dist/default/production/PLIB.X.a(s24_i2c.o)
 .scommon       0xa00001cc        0x0 ../../PLIB2_GIT/PLIB.X/dist/default/production/PLIB.X.a(s12_ports.o)
 .scommon       0xa00001cc        0x0 ../../PLIB2_GIT/PLIB.X/dist/default/production/PLIB.X.a(s21_uart.o)
 .scommon       0xa00001cc        0x0 ../../PLIB2_GIT/PLIB.X/dist/default/production/PLIB.X.a(s31_dma.o)
 .scommon       0xa00001cc        0x0 ../../PLIB2_GIT/PLIB.X/dist/default/production/PLIB.X.a(s07_resets.o)
 .scommon       0xa00001cc        0x0 ../../PLIB2_GIT/PLIB.X/dist/default/production/PLIB.X.a(s08_interrupts.o)
 .scommon       0xa00001cc        0x0 ../../PLIB2_GIT/PLIB.X/dist/default/production/PLIB.X.a(s00_system.o)
 .scommon       0xa00001cc        0x0 ../../PLIB2_GIT/PLIB.X/dist/default/production/PLIB.X.a(s34_can.o)
                0xa00001cc                _sbss_end = .
                0xa00001cc                . = ALIGN (0x4)

.bss            0xa00001cc        0x0
 *(.dynbss)
 *(COMMON)
                0xa00001cc                . = ALIGN ((. != 0x0)?0x4:0x1)
                0xa00001cc                . = ALIGN (0x4)
                0xa00001cc                _end = .
                0xa00001cc                _bss_end = .
                0x00020000                _bmxdudba_address = 0x20000
                0x00020000                _bmxdupba_address = 0x20000

/DISCARD/
 *(.pdr)
 *(.rel.dyn)
 *(.note.GNU-stack)
 *(.note.GNU-stack)
 *(.gnu_debuglink)
 *(.gnu.lto_*)
 *(.discard)

.gptab.sdata
 *(.gptab.data)
 *(.gptab.sdata)

.gptab.sbss
 *(.gptab.bss)
 *(.gptab.sbss)

.mdebug.abi32   0xa00001cc        0x0
 *(.mdebug.abi32)
 .mdebug.abi32  0xa00001cc        0x0 build/default/production/_ext/1472/config.o
 .mdebug.abi32  0xa00001cc        0x0 build/default/production/_ext/1472/interrupts.o
 .mdebug.abi32  0xa00001cc        0x0 build/default/production/_ext/1472/main.o
 .mdebug.abi32  0xa00001cc        0x0 ../../PLIB2_GIT/PLIB.X/dist/default/production/PLIB.X.a(_EXAMPLES_.o)
 .mdebug.abi32  0xa00001cc        0x0 ../../PLIB2_GIT/PLIB.X/dist/default/production/PLIB.X.a(_LOG.o)
 .mdebug.abi32  0xa00001cc        0x0 ../../PLIB2_GIT/PLIB.X/dist/default/production/PLIB.X.a(pink_lady.o)
 .mdebug.abi32  0xa00001cc        0x0 ../../PLIB2_GIT/PLIB.X/dist/default/production/PLIB.X.a(sd_card.o)
 .mdebug.abi32  0xa00001cc        0x0 ../../PLIB2_GIT/PLIB.X/dist/default/production/PLIB.X.a(e_mcp23s17.o)
 .mdebug.abi32  0xa00001cc        0x0 ../../PLIB2_GIT/PLIB.X/dist/default/production/PLIB.X.a(e_at42qt2120.o)
 .mdebug.abi32  0xa00001cc        0x0 ../../PLIB2_GIT/PLIB.X/dist/default/production/PLIB.X.a(e_pca9685.o)
 .mdebug.abi32  0xa00001cc        0x0 ../../PLIB2_GIT/PLIB.X/dist/default/production/PLIB.X.a(e_veml7700.o)
 .mdebug.abi32  0xa00001cc        0x0 ../../PLIB2_GIT/PLIB.X/dist/default/production/PLIB.X.a(e_tps92662.o)
 .mdebug.abi32  0xa00001cc        0x0 ../../PLIB2_GIT/PLIB.X/dist/default/production/PLIB.X.a(e_grove_motor_tb6612fng.o)
 .mdebug.abi32  0xa00001cc        0x0 ../../PLIB2_GIT/PLIB.X/dist/default/production/PLIB.X.a(ble.o)
 .mdebug.abi32  0xa00001cc        0x0 ../../PLIB2_GIT/PLIB.X/dist/default/production/PLIB.X.a(utilities.o)
 .mdebug.abi32  0xa00001cc        0x0 ../../PLIB2_GIT/PLIB.X/dist/default/production/PLIB.X.a(string_advance.o)
 .mdebug.abi32  0xa00001cc        0x0 ../../PLIB2_GIT/PLIB.X/dist/default/production/PLIB.X.a(lin.o)
 .mdebug.abi32  0xa00001cc        0x0 ../../PLIB2_GIT/PLIB.X/dist/default/production/PLIB.X.a(software_pwm.o)
 .mdebug.abi32  0xa00001cc        0x0 ../../PLIB2_GIT/PLIB.X/dist/default/production/PLIB.X.a(crc_16.o)
 .mdebug.abi32  0xa00001cc        0x0 ../../PLIB2_GIT/PLIB.X/dist/default/production/PLIB.X.a(errors.o)
 .mdebug.abi32  0xa00001cc        0x0 ../../PLIB2_GIT/PLIB.X/dist/default/production/PLIB.X.a(s14_timers.o)
 .mdebug.abi32  0xa00001cc        0x0 ../../PLIB2_GIT/PLIB.X/dist/default/production/PLIB.X.a(s23_spi.o)
 .mdebug.abi32  0xa00001cc        0x0 ../../PLIB2_GIT/PLIB.X/dist/default/production/PLIB.X.a(s17_adc.o)
 .mdebug.abi32  0xa00001cc        0x0 ../../PLIB2_GIT/PLIB.X/dist/default/production/PLIB.X.a(s16_output_compare.o)
 .mdebug.abi32  0xa00001cc        0x0 ../../PLIB2_GIT/PLIB.X/dist/default/production/PLIB.X.a(s24_i2c.o)
 .mdebug.abi32  0xa00001cc        0x0 ../../PLIB2_GIT/PLIB.X/dist/default/production/PLIB.X.a(s12_ports.o)
 .mdebug.abi32  0xa00001cc        0x0 ../../PLIB2_GIT/PLIB.X/dist/default/production/PLIB.X.a(s21_uart.o)
 .mdebug.abi32  0xa00001cc        0x0 ../../PLIB2_GIT/PLIB.X/dist/default/production/PLIB.X.a(s31_dma.o)
 .mdebug.abi32  0xa00001cc        0x0 ../../PLIB2_GIT/PLIB.X/dist/default/production/PLIB.X.a(s07_resets.o)
 .mdebug.abi32  0xa00001cc        0x0 ../../PLIB2_GIT/PLIB.X/dist/default/production/PLIB.X.a(s08_interrupts.o)
 .mdebug.abi32  0xa00001cc        0x0 ../../PLIB2_GIT/PLIB.X/dist/default/production/PLIB.X.a(s00_system.o)
 .mdebug.abi32  0xa00001cc        0x0 ../../PLIB2_GIT/PLIB.X/dist/default/production/PLIB.X.a(s34_can.o)
 .mdebug.abi32  0xa00001cc        0x0 /Applications/microchip/xc32/v2.41/bin/bin/../../lib/gcc/pic32mx/4.8.3/speed/libgcc.a(_floatundisf.o)
 .mdebug.abi32  0xa00001cc        0x0 /Applications/microchip/xc32/v2.41/bin/bin/../../lib/gcc/pic32mx/4.8.3/speed/libgcc.a(_udivdi3.o)
 .mdebug.abi32  0xa00001cc        0x0 /Applications/microchip/xc32/v2.41/bin/bin/../../lib/gcc/pic32mx/4.8.3/speed/libgcc.a(_umoddi3.o)
 .mdebug.abi32  0xa00001cc        0x0 /Applications/microchip/xc32/v2.41/bin/bin/../../lib/gcc/pic32mx/4.8.3/speed/libgcc.a(floatunsisf.o)
 .mdebug.abi32  0xa00001cc        0x0 /Applications/microchip/xc32/v2.41/bin/bin/../../lib/gcc/pic32mx/4.8.3/speed/libgcc.a(floatunsidf.o)
 .mdebug.abi32  0xa00001cc        0x0 /Applications/microchip/xc32/v2.41/bin/bin/../../lib/gcc/pic32mx/4.8.3/../../../../pic32mx/lib/speed/libpic32.a(default-bootstrap-exception-handler.o)
 .mdebug.abi32  0xa00001cc        0x0 /Applications/microchip/xc32/v2.41/bin/bin/../../lib/gcc/pic32mx/4.8.3/../../../../pic32mx/lib/speed/libpic32.a(default-on-reset.o)
 .mdebug.abi32  0xa00001cc        0x0 /Applications/microchip/xc32/v2.41/bin/bin/../../lib/gcc/pic32mx/4.8.3/../../../../pic32mx/lib/speed/libpic32.a(default-on-bootstrap.o)
 .mdebug.abi32  0xa00001cc        0x0 /Applications/microchip/xc32/v2.41/bin/bin/../../lib/gcc/pic32mx/4.8.3/../../../../pic32mx/lib/speed/libpic32.a(default-general-exception-handler.o)
 .mdebug.abi32  0xa00001cc        0x0 /Applications/microchip/xc32/v2.41/bin/bin/../../lib/gcc/pic32mx/4.8.3/../../../../pic32mx/lib/speed/libpic32.a(defaultinterrupt.o)
 .mdebug.abi32  0xa00001cc        0x0 /Applications/microchip/xc32/v2.41/bin/bin/../../lib/gcc/pic32mx/4.8.3/../../../../pic32mx/lib/speed/libc.a(ctypef.o)
 .mdebug.abi32  0xa00001cc        0x0 /Applications/microchip/xc32/v2.41/bin/bin/../../lib/gcc/pic32mx/4.8.3/../../../../pic32mx/lib/speed/libc.a(malloc.o)
 .mdebug.abi32  0xa00001cc        0x0 /Applications/microchip/xc32/v2.41/bin/bin/../../lib/gcc/pic32mx/4.8.3/../../../../pic32mx/lib/speed/libc.a(strstr.o)
 .mdebug.abi32  0xa00001cc        0x0 /Applications/microchip/xc32/v2.41/bin/bin/../../lib/gcc/pic32mx/4.8.3/../../../../pic32mx/lib/speed/libc.a(ctype.o)
 .mdebug.abi32  0xa00001cc        0x0 /Applications/microchip/xc32/v2.41/bin/bin/../../lib/gcc/pic32mx/4.8.3/../../../../pic32mx/lib/speed/libc.a(strchr.o)
 .mdebug.abi32  0xa00001cc        0x0 /Applications/microchip/xc32/v2.41/bin/bin/../../lib/gcc/pic32mx/4.8.3/../../../../pic32mx/lib/speed/libc.a(strncmp.o)
 .mdebug.abi32  0xa00001cc        0x0 /Applications/microchip/xc32/v2.41/bin/bin/../../lib/gcc/pic32mx/4.8.3/../../../../pic32mx/lib/speed/libm.a(w_pow.o)
 .mdebug.abi32  0xa00001cc        0x0 /Applications/microchip/xc32/v2.41/bin/bin/../../lib/gcc/pic32mx/4.8.3/../../../../pic32mx/lib/speed/libm.a(w_log.o)
 .mdebug.abi32  0xa00001cc        0x0 /Applications/microchip/xc32/v2.41/bin/bin/../../lib/gcc/pic32mx/4.8.3/../../../../pic32mx/lib/speed/libm.a(s_lib_ver.o)
 .mdebug.abi32  0xa00001cc        0x0 /Applications/microchip/xc32/v2.41/bin/bin/../../lib/gcc/pic32mx/4.8.3/../../../../pic32mx/lib/speed/libpic32.a(sbrk.o)
 .mdebug.abi32  0xa00001cc        0x0 /Applications/microchip/xc32/v2.41/bin/bin/../../lib/gcc/pic32mx/4.8.3/../../../../pic32mx/lib/speed/libpic32.a(errno.o)
 .mdebug.abi32  0xa00001cc        0x0 /Applications/microchip/xc32/v2.41/bin/bin/../../lib/gcc/pic32mx/4.8.3/../../../../pic32mx/lib/speed/libpic32.a(isinf.o)
 .mdebug.abi32  0xa00001cc        0x0 /Applications/microchip/xc32/v2.41/bin/bin/../../lib/gcc/pic32mx/4.8.3/../../../../pic32mx/lib/speed/libe.a(_unorddf2.o)

.mdebug.abiN32
 *(.mdebug.abiN32)

.mdebug.abi64
 *(.mdebug.abi64)

.mdebug.abiO64
 *(.mdebug.abiO64)

.mdebug.eabi32
 *(.mdebug.eabi32)

.mdebug.eabi64
 *(.mdebug.eabi64)

.gcc_compiled_long32
 *(.gcc_compiled_long32)

.gcc_compiled_long64
 *(.gcc_compiled_long64)

.stab
 *(.stab)

.stabstr
 *(.stabstr)

.stab.excl
 *(.stab.excl)

.stab.exclstr
 *(.stab.exclstr)

.stab.index
 *(.stab.index)

.stab.indexstr
 *(.stab.indexstr)

.comment        0x00000000      0x1bc
 *(.comment)
 .comment       0x00000000       0x3c build/default/production/_ext/1472/config.o
                                 0x3d (size before relaxing)
 .comment       0x00000000       0x3d build/default/production/_ext/1472/interrupts.o
 .comment       0x00000000       0x3d build/default/production/_ext/1472/main.o
 .comment       0x00000000       0x3d ../../PLIB2_GIT/PLIB.X/dist/default/production/PLIB.X.a(_EXAMPLES_.o)
 .comment       0x00000000       0x3d ../../PLIB2_GIT/PLIB.X/dist/default/production/PLIB.X.a(_LOG.o)
 .comment       0x00000000       0x3d ../../PLIB2_GIT/PLIB.X/dist/default/production/PLIB.X.a(pink_lady.o)
 .comment       0x00000000       0x3d ../../PLIB2_GIT/PLIB.X/dist/default/production/PLIB.X.a(sd_card.o)
 .comment       0x00000000       0x3d ../../PLIB2_GIT/PLIB.X/dist/default/production/PLIB.X.a(e_mcp23s17.o)
 .comment       0x00000000       0x3d ../../PLIB2_GIT/PLIB.X/dist/default/production/PLIB.X.a(e_at42qt2120.o)
 .comment       0x00000000       0x3d ../../PLIB2_GIT/PLIB.X/dist/default/production/PLIB.X.a(e_pca9685.o)
 .comment       0x00000000       0x3d ../../PLIB2_GIT/PLIB.X/dist/default/production/PLIB.X.a(e_veml7700.o)
 .comment       0x00000000       0x3d ../../PLIB2_GIT/PLIB.X/dist/default/production/PLIB.X.a(e_tps92662.o)
 .comment       0x00000000       0x3d ../../PLIB2_GIT/PLIB.X/dist/default/production/PLIB.X.a(e_grove_motor_tb6612fng.o)
 .comment       0x00000000       0x3d ../../PLIB2_GIT/PLIB.X/dist/default/production/PLIB.X.a(ble.o)
 .comment       0x00000000       0x3d ../../PLIB2_GIT/PLIB.X/dist/default/production/PLIB.X.a(utilities.o)
 .comment       0x00000000       0x3d ../../PLIB2_GIT/PLIB.X/dist/default/production/PLIB.X.a(string_advance.o)
 .comment       0x00000000       0x3d ../../PLIB2_GIT/PLIB.X/dist/default/production/PLIB.X.a(lin.o)
 .comment       0x00000000       0x3d ../../PLIB2_GIT/PLIB.X/dist/default/production/PLIB.X.a(software_pwm.o)
 .comment       0x00000000       0x3d ../../PLIB2_GIT/PLIB.X/dist/default/production/PLIB.X.a(crc_16.o)
 .comment       0x00000000       0x3d ../../PLIB2_GIT/PLIB.X/dist/default/production/PLIB.X.a(errors.o)
 .comment       0x00000000       0x3d ../../PLIB2_GIT/PLIB.X/dist/default/production/PLIB.X.a(s14_timers.o)
 .comment       0x00000000       0x3d ../../PLIB2_GIT/PLIB.X/dist/default/production/PLIB.X.a(s23_spi.o)
 .comment       0x00000000       0x3d ../../PLIB2_GIT/PLIB.X/dist/default/production/PLIB.X.a(s17_adc.o)
 .comment       0x00000000       0x3d ../../PLIB2_GIT/PLIB.X/dist/default/production/PLIB.X.a(s16_output_compare.o)
 .comment       0x00000000       0x3d ../../PLIB2_GIT/PLIB.X/dist/default/production/PLIB.X.a(s24_i2c.o)
 .comment       0x00000000       0x3d ../../PLIB2_GIT/PLIB.X/dist/default/production/PLIB.X.a(s12_ports.o)
 .comment       0x00000000       0x3d ../../PLIB2_GIT/PLIB.X/dist/default/production/PLIB.X.a(s21_uart.o)
 .comment       0x00000000       0x3d ../../PLIB2_GIT/PLIB.X/dist/default/production/PLIB.X.a(s31_dma.o)
 .comment       0x00000000       0x3d ../../PLIB2_GIT/PLIB.X/dist/default/production/PLIB.X.a(s07_resets.o)
 .comment       0x00000000       0x3d ../../PLIB2_GIT/PLIB.X/dist/default/production/PLIB.X.a(s08_interrupts.o)
 .comment       0x00000000       0x3d ../../PLIB2_GIT/PLIB.X/dist/default/production/PLIB.X.a(s00_system.o)
 .comment       0x00000000       0x3d ../../PLIB2_GIT/PLIB.X/dist/default/production/PLIB.X.a(s34_can.o)
 .comment       0x00000000       0x3d /Applications/microchip/xc32/v2.41/bin/bin/../../lib/gcc/pic32mx/4.8.3/speed/libgcc.a(_floatundisf.o)
 .comment       0x00000000       0x3d /Applications/microchip/xc32/v2.41/bin/bin/../../lib/gcc/pic32mx/4.8.3/speed/libgcc.a(_udivdi3.o)
 .comment       0x00000000       0x3d /Applications/microchip/xc32/v2.41/bin/bin/../../lib/gcc/pic32mx/4.8.3/speed/libgcc.a(_umoddi3.o)
 .comment       0x00000000       0x3d /Applications/microchip/xc32/v2.41/bin/bin/../../lib/gcc/pic32mx/4.8.3/speed/libgcc.a(floatunsisf.o)
 .comment       0x00000000       0x3d /Applications/microchip/xc32/v2.41/bin/bin/../../lib/gcc/pic32mx/4.8.3/speed/libgcc.a(floatunsidf.o)
 .comment       0x0000003c       0x18 /Applications/microchip/xc32/v2.41/bin/bin/../../lib/gcc/pic32mx/4.8.3/../../../../pic32mx/lib/speed/libpic32.a(memset.o)
                                 0x19 (size before relaxing)
 .comment       0x00000054       0x19 /Applications/microchip/xc32/v2.41/bin/bin/../../lib/gcc/pic32mx/4.8.3/../../../../pic32mx/lib/speed/libpic32.a(strcmp.o)
                                 0x1a (size before relaxing)
 .comment       0x0000006d       0x19 /Applications/microchip/xc32/v2.41/bin/bin/../../lib/gcc/pic32mx/4.8.3/../../../../pic32mx/lib/speed/libpic32.a(strlen.o)
                                 0x1a (size before relaxing)
 .comment       0x00000000       0x3d /Applications/microchip/xc32/v2.41/bin/bin/../../lib/gcc/pic32mx/4.8.3/../../../../pic32mx/lib/speed/libpic32.a(default-bootstrap-exception-handler.o)
 .comment       0x00000000       0x3d /Applications/microchip/xc32/v2.41/bin/bin/../../lib/gcc/pic32mx/4.8.3/../../../../pic32mx/lib/speed/libpic32.a(default-on-reset.o)
 .comment       0x00000000       0x3d /Applications/microchip/xc32/v2.41/bin/bin/../../lib/gcc/pic32mx/4.8.3/../../../../pic32mx/lib/speed/libpic32.a(default-on-bootstrap.o)
 .comment       0x00000000       0x3d /Applications/microchip/xc32/v2.41/bin/bin/../../lib/gcc/pic32mx/4.8.3/../../../../pic32mx/lib/speed/libpic32.a(default-general-exception-handler.o)
 .comment       0x00000000       0x3d /Applications/microchip/xc32/v2.41/bin/bin/../../lib/gcc/pic32mx/4.8.3/../../../../pic32mx/lib/speed/libpic32.a(defaultinterrupt.o)
 .comment       0x00000086       0x4f /Applications/microchip/xc32/v2.41/bin/bin/../../lib/gcc/pic32mx/4.8.3/../../../../pic32mx/lib/speed/libc.a(ctypef.o)
                                 0x8c (size before relaxing)
 .comment       0x00000000       0x3d /Applications/microchip/xc32/v2.41/bin/bin/../../lib/gcc/pic32mx/4.8.3/../../../../pic32mx/lib/speed/libc.a(malloc.o)
 .comment       0x00000000       0x3d /Applications/microchip/xc32/v2.41/bin/bin/../../lib/gcc/pic32mx/4.8.3/../../../../pic32mx/lib/speed/libc.a(strstr.o)
 .comment       0x000000d5       0x4e /Applications/microchip/xc32/v2.41/bin/bin/../../lib/gcc/pic32mx/4.8.3/../../../../pic32mx/lib/speed/libc.a(ctype.o)
                                 0x8b (size before relaxing)
 .comment       0x00000000       0x3d /Applications/microchip/xc32/v2.41/bin/bin/../../lib/gcc/pic32mx/4.8.3/../../../../pic32mx/lib/speed/libc.a(strchr.o)
 .comment       0x00000000       0x3d /Applications/microchip/xc32/v2.41/bin/bin/../../lib/gcc/pic32mx/4.8.3/../../../../pic32mx/lib/speed/libc.a(strncmp.o)
 .comment       0x00000000       0x3d /Applications/microchip/xc32/v2.41/bin/bin/../../lib/gcc/pic32mx/4.8.3/../../../../pic32mx/lib/speed/libm.a(w_pow.o)
 .comment       0x00000000       0x3d /Applications/microchip/xc32/v2.41/bin/bin/../../lib/gcc/pic32mx/4.8.3/../../../../pic32mx/lib/speed/libm.a(w_log.o)
 .comment       0x00000000       0x3d /Applications/microchip/xc32/v2.41/bin/bin/../../lib/gcc/pic32mx/4.8.3/../../../../pic32mx/lib/speed/libm.a(s_lib_ver.o)
 .comment       0x00000123       0x4b /Applications/microchip/xc32/v2.41/bin/bin/../../lib/gcc/pic32mx/4.8.3/../../../../pic32mx/lib/speed/libpic32.a(sbrk.o)
                                 0x88 (size before relaxing)
 .comment       0x00000000       0x3d /Applications/microchip/xc32/v2.41/bin/bin/../../lib/gcc/pic32mx/4.8.3/../../../../pic32mx/lib/speed/libpic32.a(errno.o)
 .comment       0x00000000       0x3d /Applications/microchip/xc32/v2.41/bin/bin/../../lib/gcc/pic32mx/4.8.3/../../../../pic32mx/lib/speed/libpic32.a(isinf.o)
 .comment       0x0000016e       0x4e /Applications/microchip/xc32/v2.41/bin/bin/../../lib/gcc/pic32mx/4.8.3/../../../../pic32mx/lib/speed/libe.a(_unorddf2.o)
                                 0x8b (size before relaxing)

.debug
 *(.debug)

.line
 *(.line)

.debug_srcinfo
 *(.debug_srcinfo)

.debug_sfnames
 *(.debug_sfnames)

.debug_aranges  0x00000000      0x758
 *(.debug_aranges)
 .debug_aranges
                0x00000000       0x20 build/default/production/_ext/1472/config.o
 .debug_aranges
                0x00000020       0x20 build/default/production/_ext/1472/interrupts.o
 .debug_aranges
                0x00000040       0x20 build/default/production/_ext/1472/main.o
 .debug_aranges
                0x00000060       0x20 ../../PLIB2_GIT/PLIB.X/dist/default/production/PLIB.X.a(_EXAMPLES_.o)
 .debug_aranges
                0x00000080       0x20 ../../PLIB2_GIT/PLIB.X/dist/default/production/PLIB.X.a(_LOG.o)
 .debug_aranges
                0x000000a0       0x20 ../../PLIB2_GIT/PLIB.X/dist/default/production/PLIB.X.a(pink_lady.o)
 .debug_aranges
                0x000000c0       0x20 ../../PLIB2_GIT/PLIB.X/dist/default/production/PLIB.X.a(sd_card.o)
 .debug_aranges
                0x000000e0       0x20 ../../PLIB2_GIT/PLIB.X/dist/default/production/PLIB.X.a(e_mcp23s17.o)
 .debug_aranges
                0x00000100       0x20 ../../PLIB2_GIT/PLIB.X/dist/default/production/PLIB.X.a(e_at42qt2120.o)
 .debug_aranges
                0x00000120       0x20 ../../PLIB2_GIT/PLIB.X/dist/default/production/PLIB.X.a(e_pca9685.o)
 .debug_aranges
                0x00000140       0x20 ../../PLIB2_GIT/PLIB.X/dist/default/production/PLIB.X.a(e_veml7700.o)
 .debug_aranges
                0x00000160       0x20 ../../PLIB2_GIT/PLIB.X/dist/default/production/PLIB.X.a(e_tps92662.o)
 .debug_aranges
                0x00000180       0x20 ../../PLIB2_GIT/PLIB.X/dist/default/production/PLIB.X.a(e_grove_motor_tb6612fng.o)
 .debug_aranges
                0x000001a0       0x20 ../../PLIB2_GIT/PLIB.X/dist/default/production/PLIB.X.a(ble.o)
 .debug_aranges
                0x000001c0       0x20 ../../PLIB2_GIT/PLIB.X/dist/default/production/PLIB.X.a(utilities.o)
 .debug_aranges
                0x000001e0       0x20 ../../PLIB2_GIT/PLIB.X/dist/default/production/PLIB.X.a(string_advance.o)
 .debug_aranges
                0x00000200       0x20 ../../PLIB2_GIT/PLIB.X/dist/default/production/PLIB.X.a(lin.o)
 .debug_aranges
                0x00000220       0x20 ../../PLIB2_GIT/PLIB.X/dist/default/production/PLIB.X.a(software_pwm.o)
 .debug_aranges
                0x00000240       0x20 ../../PLIB2_GIT/PLIB.X/dist/default/production/PLIB.X.a(crc_16.o)
 .debug_aranges
                0x00000260       0x20 ../../PLIB2_GIT/PLIB.X/dist/default/production/PLIB.X.a(errors.o)
 .debug_aranges
                0x00000280       0x20 ../../PLIB2_GIT/PLIB.X/dist/default/production/PLIB.X.a(s14_timers.o)
 .debug_aranges
                0x000002a0       0x20 ../../PLIB2_GIT/PLIB.X/dist/default/production/PLIB.X.a(s23_spi.o)
 .debug_aranges
                0x000002c0       0x20 ../../PLIB2_GIT/PLIB.X/dist/default/production/PLIB.X.a(s17_adc.o)
 .debug_aranges
                0x000002e0       0x20 ../../PLIB2_GIT/PLIB.X/dist/default/production/PLIB.X.a(s16_output_compare.o)
 .debug_aranges
                0x00000300       0x20 ../../PLIB2_GIT/PLIB.X/dist/default/production/PLIB.X.a(s24_i2c.o)
 .debug_aranges
                0x00000320       0x20 ../../PLIB2_GIT/PLIB.X/dist/default/production/PLIB.X.a(s12_ports.o)
 .debug_aranges
                0x00000340       0x20 ../../PLIB2_GIT/PLIB.X/dist/default/production/PLIB.X.a(s21_uart.o)
 .debug_aranges
                0x00000360       0x20 ../../PLIB2_GIT/PLIB.X/dist/default/production/PLIB.X.a(s31_dma.o)
 .debug_aranges
                0x00000380       0x20 ../../PLIB2_GIT/PLIB.X/dist/default/production/PLIB.X.a(s07_resets.o)
 .debug_aranges
                0x000003a0       0x20 ../../PLIB2_GIT/PLIB.X/dist/default/production/PLIB.X.a(s08_interrupts.o)
 .debug_aranges
                0x000003c0       0x20 ../../PLIB2_GIT/PLIB.X/dist/default/production/PLIB.X.a(s00_system.o)
 .debug_aranges
                0x000003e0       0x20 ../../PLIB2_GIT/PLIB.X/dist/default/production/PLIB.X.a(s34_can.o)
 .debug_aranges
                0x00000400       0x20 /Applications/microchip/xc32/v2.41/bin/bin/../../lib/gcc/pic32mx/4.8.3/speed/libgcc.a(_floatundisf.o)
 .debug_aranges
                0x00000420       0x20 /Applications/microchip/xc32/v2.41/bin/bin/../../lib/gcc/pic32mx/4.8.3/speed/libgcc.a(_udivdi3.o)
 .debug_aranges
                0x00000440       0x20 /Applications/microchip/xc32/v2.41/bin/bin/../../lib/gcc/pic32mx/4.8.3/speed/libgcc.a(_umoddi3.o)
 .debug_aranges
                0x00000460       0x20 /Applications/microchip/xc32/v2.41/bin/bin/../../lib/gcc/pic32mx/4.8.3/speed/libgcc.a(floatunsisf.o)
 .debug_aranges
                0x00000480       0x20 /Applications/microchip/xc32/v2.41/bin/bin/../../lib/gcc/pic32mx/4.8.3/speed/libgcc.a(floatunsidf.o)
 .debug_aranges
                0x000004a0       0x20 /Applications/microchip/xc32/v2.41/bin/bin/../../lib/gcc/pic32mx/4.8.3/../../../../pic32mx/lib/speed/libpic32.a(default-bootstrap-exception-handler.o)
 .debug_aranges
                0x000004c0       0x20 /Applications/microchip/xc32/v2.41/bin/bin/../../lib/gcc/pic32mx/4.8.3/../../../../pic32mx/lib/speed/libpic32.a(default-on-reset.o)
 .debug_aranges
                0x000004e0       0x20 /Applications/microchip/xc32/v2.41/bin/bin/../../lib/gcc/pic32mx/4.8.3/../../../../pic32mx/lib/speed/libpic32.a(default-on-bootstrap.o)
 .debug_aranges
                0x00000500       0x20 /Applications/microchip/xc32/v2.41/bin/bin/../../lib/gcc/pic32mx/4.8.3/../../../../pic32mx/lib/speed/libpic32.a(default-general-exception-handler.o)
 .debug_aranges
                0x00000520       0x20 /Applications/microchip/xc32/v2.41/bin/bin/../../lib/gcc/pic32mx/4.8.3/../../../../pic32mx/lib/speed/libpic32.a(defaultinterrupt.o)
 .debug_aranges
                0x00000540       0xa0 /Applications/microchip/xc32/v2.41/bin/bin/../../lib/gcc/pic32mx/4.8.3/../../../../pic32mx/lib/speed/libc.a(ctypef.o)
 .debug_aranges
                0x000005e0       0x30 /Applications/microchip/xc32/v2.41/bin/bin/../../lib/gcc/pic32mx/4.8.3/../../../../pic32mx/lib/speed/libc.a(malloc.o)
 .debug_aranges
                0x00000610       0x20 /Applications/microchip/xc32/v2.41/bin/bin/../../lib/gcc/pic32mx/4.8.3/../../../../pic32mx/lib/speed/libc.a(strstr.o)
 .debug_aranges
                0x00000630       0x20 /Applications/microchip/xc32/v2.41/bin/bin/../../lib/gcc/pic32mx/4.8.3/../../../../pic32mx/lib/speed/libc.a(strchr.o)
 .debug_aranges
                0x00000650       0x20 /Applications/microchip/xc32/v2.41/bin/bin/../../lib/gcc/pic32mx/4.8.3/../../../../pic32mx/lib/speed/libc.a(strncmp.o)
 .debug_aranges
                0x00000670       0x20 /Applications/microchip/xc32/v2.41/bin/bin/../../lib/gcc/pic32mx/4.8.3/../../../../pic32mx/lib/speed/libm.a(w_pow.o)
 .debug_aranges
                0x00000690       0x20 /Applications/microchip/xc32/v2.41/bin/bin/../../lib/gcc/pic32mx/4.8.3/../../../../pic32mx/lib/speed/libm.a(w_log.o)
 .debug_aranges
                0x000006b0       0x40 /Applications/microchip/xc32/v2.41/bin/bin/../../lib/gcc/pic32mx/4.8.3/../../../../pic32mx/lib/speed/libpic32.a(sbrk.o)
 .debug_aranges
                0x000006f0       0x48 /Applications/microchip/xc32/v2.41/bin/bin/../../lib/gcc/pic32mx/4.8.3/../../../../pic32mx/lib/speed/libpic32.a(isinf.o)
 .debug_aranges
                0x00000738       0x20 /Applications/microchip/xc32/v2.41/bin/bin/../../lib/gcc/pic32mx/4.8.3/../../../../pic32mx/lib/speed/libe.a(_unorddf2.o)

.debug_pubnames
 *(.debug_pubnames)

.debug_info     0x00000000    0x40111
 *(.debug_info .gnu.linkonce.wi.*)
 .debug_info    0x00000000     0x1351 build/default/production/_ext/1472/config.o
 .debug_info    0x00001351     0x21ab build/default/production/_ext/1472/interrupts.o
 .debug_info    0x000034fc     0x24ce build/default/production/_ext/1472/main.o
 .debug_info    0x000059ca     0xb904 ../../PLIB2_GIT/PLIB.X/dist/default/production/PLIB.X.a(_EXAMPLES_.o)
 .debug_info    0x000112ce     0x213a ../../PLIB2_GIT/PLIB.X/dist/default/production/PLIB.X.a(_LOG.o)
 .debug_info    0x00013408     0x1eb4 ../../PLIB2_GIT/PLIB.X/dist/default/production/PLIB.X.a(pink_lady.o)
 .debug_info    0x000152bc     0x5640 ../../PLIB2_GIT/PLIB.X/dist/default/production/PLIB.X.a(sd_card.o)
 .debug_info    0x0001a8fc     0x1662 ../../PLIB2_GIT/PLIB.X/dist/default/production/PLIB.X.a(e_mcp23s17.o)
 .debug_info    0x0001bf5e      0xd4e ../../PLIB2_GIT/PLIB.X/dist/default/production/PLIB.X.a(e_at42qt2120.o)
 .debug_info    0x0001ccac      0xec9 ../../PLIB2_GIT/PLIB.X/dist/default/production/PLIB.X.a(e_pca9685.o)
 .debug_info    0x0001db75      0xbfb ../../PLIB2_GIT/PLIB.X/dist/default/production/PLIB.X.a(e_veml7700.o)
 .debug_info    0x0001e770     0x3b31 ../../PLIB2_GIT/PLIB.X/dist/default/production/PLIB.X.a(e_tps92662.o)
 .debug_info    0x000222a1     0x10b9 ../../PLIB2_GIT/PLIB.X/dist/default/production/PLIB.X.a(e_grove_motor_tb6612fng.o)
 .debug_info    0x0002335a     0x33b7 ../../PLIB2_GIT/PLIB.X/dist/default/production/PLIB.X.a(ble.o)
 .debug_info    0x00026711     0x13e9 ../../PLIB2_GIT/PLIB.X/dist/default/production/PLIB.X.a(utilities.o)
 .debug_info    0x00027afa      0x8d2 ../../PLIB2_GIT/PLIB.X/dist/default/production/PLIB.X.a(string_advance.o)
 .debug_info    0x000283cc     0x1812 ../../PLIB2_GIT/PLIB.X/dist/default/production/PLIB.X.a(lin.o)
 .debug_info    0x00029bde      0xbec ../../PLIB2_GIT/PLIB.X/dist/default/production/PLIB.X.a(software_pwm.o)
 .debug_info    0x0002a7ca      0x9b1 ../../PLIB2_GIT/PLIB.X/dist/default/production/PLIB.X.a(crc_16.o)
 .debug_info    0x0002b17b      0xbc2 ../../PLIB2_GIT/PLIB.X/dist/default/production/PLIB.X.a(errors.o)
 .debug_info    0x0002bd3d     0x113f ../../PLIB2_GIT/PLIB.X/dist/default/production/PLIB.X.a(s14_timers.o)
 .debug_info    0x0002ce7c     0x2004 ../../PLIB2_GIT/PLIB.X/dist/default/production/PLIB.X.a(s23_spi.o)
 .debug_info    0x0002ee80     0x109a ../../PLIB2_GIT/PLIB.X/dist/default/production/PLIB.X.a(s17_adc.o)
 .debug_info    0x0002ff1a      0xd5c ../../PLIB2_GIT/PLIB.X/dist/default/production/PLIB.X.a(s16_output_compare.o)
 .debug_info    0x00030c76     0x259b ../../PLIB2_GIT/PLIB.X/dist/default/production/PLIB.X.a(s24_i2c.o)
 .debug_info    0x00033211     0x1204 ../../PLIB2_GIT/PLIB.X/dist/default/production/PLIB.X.a(s12_ports.o)
 .debug_info    0x00034415     0x20ae ../../PLIB2_GIT/PLIB.X/dist/default/production/PLIB.X.a(s21_uart.o)
 .debug_info    0x000364c3     0x27cb ../../PLIB2_GIT/PLIB.X/dist/default/production/PLIB.X.a(s31_dma.o)
 .debug_info    0x00038c8e      0x34a ../../PLIB2_GIT/PLIB.X/dist/default/production/PLIB.X.a(s07_resets.o)
 .debug_info    0x00038fd8     0x1490 ../../PLIB2_GIT/PLIB.X/dist/default/production/PLIB.X.a(s08_interrupts.o)
 .debug_info    0x0003a468      0xa3e ../../PLIB2_GIT/PLIB.X/dist/default/production/PLIB.X.a(s00_system.o)
 .debug_info    0x0003aea6     0x3034 ../../PLIB2_GIT/PLIB.X/dist/default/production/PLIB.X.a(s34_can.o)
 .debug_info    0x0003deda      0x259 /Applications/microchip/xc32/v2.41/bin/bin/../../lib/gcc/pic32mx/4.8.3/speed/libgcc.a(_floatundisf.o)
 .debug_info    0x0003e133      0x751 /Applications/microchip/xc32/v2.41/bin/bin/../../lib/gcc/pic32mx/4.8.3/speed/libgcc.a(_udivdi3.o)
 .debug_info    0x0003e884      0x78e /Applications/microchip/xc32/v2.41/bin/bin/../../lib/gcc/pic32mx/4.8.3/speed/libgcc.a(_umoddi3.o)
 .debug_info    0x0003f012      0x129 /Applications/microchip/xc32/v2.41/bin/bin/../../lib/gcc/pic32mx/4.8.3/speed/libgcc.a(floatunsisf.o)
 .debug_info    0x0003f13b      0x137 /Applications/microchip/xc32/v2.41/bin/bin/../../lib/gcc/pic32mx/4.8.3/speed/libgcc.a(floatunsidf.o)
 .debug_info    0x0003f272       0xf4 /Applications/microchip/xc32/v2.41/bin/bin/../../lib/gcc/pic32mx/4.8.3/../../../../pic32mx/lib/speed/libpic32.a(default-bootstrap-exception-handler.o)
 .debug_info    0x0003f366       0xcd /Applications/microchip/xc32/v2.41/bin/bin/../../lib/gcc/pic32mx/4.8.3/../../../../pic32mx/lib/speed/libpic32.a(default-on-reset.o)
 .debug_info    0x0003f433       0xd5 /Applications/microchip/xc32/v2.41/bin/bin/../../lib/gcc/pic32mx/4.8.3/../../../../pic32mx/lib/speed/libpic32.a(default-on-bootstrap.o)
 .debug_info    0x0003f508       0xf0 /Applications/microchip/xc32/v2.41/bin/bin/../../lib/gcc/pic32mx/4.8.3/../../../../pic32mx/lib/speed/libpic32.a(default-general-exception-handler.o)
 .debug_info    0x0003f5f8       0xe7 /Applications/microchip/xc32/v2.41/bin/bin/../../lib/gcc/pic32mx/4.8.3/../../../../pic32mx/lib/speed/libpic32.a(defaultinterrupt.o)
 .debug_info    0x0003f6df      0x238 /Applications/microchip/xc32/v2.41/bin/bin/../../lib/gcc/pic32mx/4.8.3/../../../../pic32mx/lib/speed/libc.a(ctypef.o)
 .debug_info    0x0003f917       0xf5 /Applications/microchip/xc32/v2.41/bin/bin/../../lib/gcc/pic32mx/4.8.3/../../../../pic32mx/lib/speed/libc.a(malloc.o)
 .debug_info    0x0003fa0c       0xc4 /Applications/microchip/xc32/v2.41/bin/bin/../../lib/gcc/pic32mx/4.8.3/../../../../pic32mx/lib/speed/libc.a(strstr.o)
 .debug_info    0x0003fad0       0xc4 /Applications/microchip/xc32/v2.41/bin/bin/../../lib/gcc/pic32mx/4.8.3/../../../../pic32mx/lib/speed/libc.a(strchr.o)
 .debug_info    0x0003fb94       0xc6 /Applications/microchip/xc32/v2.41/bin/bin/../../lib/gcc/pic32mx/4.8.3/../../../../pic32mx/lib/speed/libc.a(strncmp.o)
 .debug_info    0x0003fc5a       0xc2 /Applications/microchip/xc32/v2.41/bin/bin/../../lib/gcc/pic32mx/4.8.3/../../../../pic32mx/lib/speed/libm.a(w_pow.o)
 .debug_info    0x0003fd1c       0xc2 /Applications/microchip/xc32/v2.41/bin/bin/../../lib/gcc/pic32mx/4.8.3/../../../../pic32mx/lib/speed/libm.a(w_log.o)
 .debug_info    0x0003fdde      0x131 /Applications/microchip/xc32/v2.41/bin/bin/../../lib/gcc/pic32mx/4.8.3/../../../../pic32mx/lib/speed/libpic32.a(sbrk.o)
 .debug_info    0x0003ff0f      0x134 /Applications/microchip/xc32/v2.41/bin/bin/../../lib/gcc/pic32mx/4.8.3/../../../../pic32mx/lib/speed/libpic32.a(isinf.o)
 .debug_info    0x00040043       0xce /Applications/microchip/xc32/v2.41/bin/bin/../../lib/gcc/pic32mx/4.8.3/../../../../pic32mx/lib/speed/libe.a(_unorddf2.o)

.debug_abbrev   0x00000000     0x4f2c
 *(.debug_abbrev)
 .debug_abbrev  0x00000000      0x1ec build/default/production/_ext/1472/config.o
 .debug_abbrev  0x000001ec      0x1ab build/default/production/_ext/1472/interrupts.o
 .debug_abbrev  0x00000397      0x27e build/default/production/_ext/1472/main.o
 .debug_abbrev  0x00000615      0x4c8 ../../PLIB2_GIT/PLIB.X/dist/default/production/PLIB.X.a(_EXAMPLES_.o)
 .debug_abbrev  0x00000add      0x2ac ../../PLIB2_GIT/PLIB.X/dist/default/production/PLIB.X.a(_LOG.o)
 .debug_abbrev  0x00000d89      0x234 ../../PLIB2_GIT/PLIB.X/dist/default/production/PLIB.X.a(pink_lady.o)
 .debug_abbrev  0x00000fbd      0x419 ../../PLIB2_GIT/PLIB.X/dist/default/production/PLIB.X.a(sd_card.o)
 .debug_abbrev  0x000013d6      0x19a ../../PLIB2_GIT/PLIB.X/dist/default/production/PLIB.X.a(e_mcp23s17.o)
 .debug_abbrev  0x00001570      0x182 ../../PLIB2_GIT/PLIB.X/dist/default/production/PLIB.X.a(e_at42qt2120.o)
 .debug_abbrev  0x000016f2      0x180 ../../PLIB2_GIT/PLIB.X/dist/default/production/PLIB.X.a(e_pca9685.o)
 .debug_abbrev  0x00001872      0x182 ../../PLIB2_GIT/PLIB.X/dist/default/production/PLIB.X.a(e_veml7700.o)
 .debug_abbrev  0x000019f4      0x357 ../../PLIB2_GIT/PLIB.X/dist/default/production/PLIB.X.a(e_tps92662.o)
 .debug_abbrev  0x00001d4b      0x1cd ../../PLIB2_GIT/PLIB.X/dist/default/production/PLIB.X.a(e_grove_motor_tb6612fng.o)
 .debug_abbrev  0x00001f18      0x365 ../../PLIB2_GIT/PLIB.X/dist/default/production/PLIB.X.a(ble.o)
 .debug_abbrev  0x0000227d      0x31e ../../PLIB2_GIT/PLIB.X/dist/default/production/PLIB.X.a(utilities.o)
 .debug_abbrev  0x0000259b      0x1b3 ../../PLIB2_GIT/PLIB.X/dist/default/production/PLIB.X.a(string_advance.o)
 .debug_abbrev  0x0000274e      0x200 ../../PLIB2_GIT/PLIB.X/dist/default/production/PLIB.X.a(lin.o)
 .debug_abbrev  0x0000294e      0x15f ../../PLIB2_GIT/PLIB.X/dist/default/production/PLIB.X.a(software_pwm.o)
 .debug_abbrev  0x00002aad      0x159 ../../PLIB2_GIT/PLIB.X/dist/default/production/PLIB.X.a(crc_16.o)
 .debug_abbrev  0x00002c06      0x186 ../../PLIB2_GIT/PLIB.X/dist/default/production/PLIB.X.a(errors.o)
 .debug_abbrev  0x00002d8c      0x1b9 ../../PLIB2_GIT/PLIB.X/dist/default/production/PLIB.X.a(s14_timers.o)
 .debug_abbrev  0x00002f45      0x283 ../../PLIB2_GIT/PLIB.X/dist/default/production/PLIB.X.a(s23_spi.o)
 .debug_abbrev  0x000031c8      0x17f ../../PLIB2_GIT/PLIB.X/dist/default/production/PLIB.X.a(s17_adc.o)
 .debug_abbrev  0x00003347      0x152 ../../PLIB2_GIT/PLIB.X/dist/default/production/PLIB.X.a(s16_output_compare.o)
 .debug_abbrev  0x00003499      0x365 ../../PLIB2_GIT/PLIB.X/dist/default/production/PLIB.X.a(s24_i2c.o)
 .debug_abbrev  0x000037fe      0x1b0 ../../PLIB2_GIT/PLIB.X/dist/default/production/PLIB.X.a(s12_ports.o)
 .debug_abbrev  0x000039ae      0x275 ../../PLIB2_GIT/PLIB.X/dist/default/production/PLIB.X.a(s21_uart.o)
 .debug_abbrev  0x00003c23      0x42d ../../PLIB2_GIT/PLIB.X/dist/default/production/PLIB.X.a(s31_dma.o)
 .debug_abbrev  0x00004050       0xc3 ../../PLIB2_GIT/PLIB.X/dist/default/production/PLIB.X.a(s07_resets.o)
 .debug_abbrev  0x00004113      0x227 ../../PLIB2_GIT/PLIB.X/dist/default/production/PLIB.X.a(s08_interrupts.o)
 .debug_abbrev  0x0000433a      0x272 ../../PLIB2_GIT/PLIB.X/dist/default/production/PLIB.X.a(s00_system.o)
 .debug_abbrev  0x000045ac      0x313 ../../PLIB2_GIT/PLIB.X/dist/default/production/PLIB.X.a(s34_can.o)
 .debug_abbrev  0x000048bf       0x64 /Applications/microchip/xc32/v2.41/bin/bin/../../lib/gcc/pic32mx/4.8.3/speed/libgcc.a(_floatundisf.o)
 .debug_abbrev  0x00004923      0x138 /Applications/microchip/xc32/v2.41/bin/bin/../../lib/gcc/pic32mx/4.8.3/speed/libgcc.a(_udivdi3.o)
 .debug_abbrev  0x00004a5b      0x147 /Applications/microchip/xc32/v2.41/bin/bin/../../lib/gcc/pic32mx/4.8.3/speed/libgcc.a(_umoddi3.o)
 .debug_abbrev  0x00004ba2       0x62 /Applications/microchip/xc32/v2.41/bin/bin/../../lib/gcc/pic32mx/4.8.3/speed/libgcc.a(floatunsisf.o)
 .debug_abbrev  0x00004c04       0x62 /Applications/microchip/xc32/v2.41/bin/bin/../../lib/gcc/pic32mx/4.8.3/speed/libgcc.a(floatunsidf.o)
 .debug_abbrev  0x00004c66       0x28 /Applications/microchip/xc32/v2.41/bin/bin/../../lib/gcc/pic32mx/4.8.3/../../../../pic32mx/lib/speed/libpic32.a(default-bootstrap-exception-handler.o)
 .debug_abbrev  0x00004c8e       0x28 /Applications/microchip/xc32/v2.41/bin/bin/../../lib/gcc/pic32mx/4.8.3/../../../../pic32mx/lib/speed/libpic32.a(default-on-reset.o)
 .debug_abbrev  0x00004cb6       0x28 /Applications/microchip/xc32/v2.41/bin/bin/../../lib/gcc/pic32mx/4.8.3/../../../../pic32mx/lib/speed/libpic32.a(default-on-bootstrap.o)
 .debug_abbrev  0x00004cde       0x28 /Applications/microchip/xc32/v2.41/bin/bin/../../lib/gcc/pic32mx/4.8.3/../../../../pic32mx/lib/speed/libpic32.a(default-general-exception-handler.o)
 .debug_abbrev  0x00004d06       0x28 /Applications/microchip/xc32/v2.41/bin/bin/../../lib/gcc/pic32mx/4.8.3/../../../../pic32mx/lib/speed/libpic32.a(defaultinterrupt.o)
 .debug_abbrev  0x00004d2e       0x28 /Applications/microchip/xc32/v2.41/bin/bin/../../lib/gcc/pic32mx/4.8.3/../../../../pic32mx/lib/speed/libc.a(ctypef.o)
 .debug_abbrev  0x00004d56       0x47 /Applications/microchip/xc32/v2.41/bin/bin/../../lib/gcc/pic32mx/4.8.3/../../../../pic32mx/lib/speed/libc.a(malloc.o)
 .debug_abbrev  0x00004d9d       0x28 /Applications/microchip/xc32/v2.41/bin/bin/../../lib/gcc/pic32mx/4.8.3/../../../../pic32mx/lib/speed/libc.a(strstr.o)
 .debug_abbrev  0x00004dc5       0x28 /Applications/microchip/xc32/v2.41/bin/bin/../../lib/gcc/pic32mx/4.8.3/../../../../pic32mx/lib/speed/libc.a(strchr.o)
 .debug_abbrev  0x00004ded       0x28 /Applications/microchip/xc32/v2.41/bin/bin/../../lib/gcc/pic32mx/4.8.3/../../../../pic32mx/lib/speed/libc.a(strncmp.o)
 .debug_abbrev  0x00004e15       0x28 /Applications/microchip/xc32/v2.41/bin/bin/../../lib/gcc/pic32mx/4.8.3/../../../../pic32mx/lib/speed/libm.a(w_pow.o)
 .debug_abbrev  0x00004e3d       0x28 /Applications/microchip/xc32/v2.41/bin/bin/../../lib/gcc/pic32mx/4.8.3/../../../../pic32mx/lib/speed/libm.a(w_log.o)
 .debug_abbrev  0x00004e65       0x54 /Applications/microchip/xc32/v2.41/bin/bin/../../lib/gcc/pic32mx/4.8.3/../../../../pic32mx/lib/speed/libpic32.a(sbrk.o)
 .debug_abbrev  0x00004eb9       0x3e /Applications/microchip/xc32/v2.41/bin/bin/../../lib/gcc/pic32mx/4.8.3/../../../../pic32mx/lib/speed/libpic32.a(isinf.o)
 .debug_abbrev  0x00004ef7       0x35 /Applications/microchip/xc32/v2.41/bin/bin/../../lib/gcc/pic32mx/4.8.3/../../../../pic32mx/lib/speed/libe.a(_unorddf2.o)

.debug_line     0x00000000     0x89f8
 *(.debug_line)
 .debug_line    0x00000000      0x27d build/default/production/_ext/1472/config.o
 .debug_line    0x0000027d      0x4a2 build/default/production/_ext/1472/interrupts.o
 .debug_line    0x0000071f      0x3d2 build/default/production/_ext/1472/main.o
 .debug_line    0x00000af1      0xb37 ../../PLIB2_GIT/PLIB.X/dist/default/production/PLIB.X.a(_EXAMPLES_.o)
 .debug_line    0x00001628      0x512 ../../PLIB2_GIT/PLIB.X/dist/default/production/PLIB.X.a(_LOG.o)
 .debug_line    0x00001b3a      0x4aa ../../PLIB2_GIT/PLIB.X/dist/default/production/PLIB.X.a(pink_lady.o)
 .debug_line    0x00001fe4      0xa62 ../../PLIB2_GIT/PLIB.X/dist/default/production/PLIB.X.a(sd_card.o)
 .debug_line    0x00002a46      0x272 ../../PLIB2_GIT/PLIB.X/dist/default/production/PLIB.X.a(e_mcp23s17.o)
 .debug_line    0x00002cb8      0x25a ../../PLIB2_GIT/PLIB.X/dist/default/production/PLIB.X.a(e_at42qt2120.o)
 .debug_line    0x00002f12      0x25e ../../PLIB2_GIT/PLIB.X/dist/default/production/PLIB.X.a(e_pca9685.o)
 .debug_line    0x00003170      0x256 ../../PLIB2_GIT/PLIB.X/dist/default/production/PLIB.X.a(e_veml7700.o)
 .debug_line    0x000033c6      0x818 ../../PLIB2_GIT/PLIB.X/dist/default/production/PLIB.X.a(e_tps92662.o)
 .debug_line    0x00003bde      0x294 ../../PLIB2_GIT/PLIB.X/dist/default/production/PLIB.X.a(e_grove_motor_tb6612fng.o)
 .debug_line    0x00003e72      0x9a8 ../../PLIB2_GIT/PLIB.X/dist/default/production/PLIB.X.a(ble.o)
 .debug_line    0x0000481a      0x4bc ../../PLIB2_GIT/PLIB.X/dist/default/production/PLIB.X.a(utilities.o)
 .debug_line    0x00004cd6      0x318 ../../PLIB2_GIT/PLIB.X/dist/default/production/PLIB.X.a(string_advance.o)
 .debug_line    0x00004fee      0x411 ../../PLIB2_GIT/PLIB.X/dist/default/production/PLIB.X.a(lin.o)
 .debug_line    0x000053ff      0x23a ../../PLIB2_GIT/PLIB.X/dist/default/production/PLIB.X.a(software_pwm.o)
 .debug_line    0x00005639      0x21b ../../PLIB2_GIT/PLIB.X/dist/default/production/PLIB.X.a(crc_16.o)
 .debug_line    0x00005854      0x2f1 ../../PLIB2_GIT/PLIB.X/dist/default/production/PLIB.X.a(errors.o)
 .debug_line    0x00005b45      0x258 ../../PLIB2_GIT/PLIB.X/dist/default/production/PLIB.X.a(s14_timers.o)
 .debug_line    0x00005d9d      0x2e9 ../../PLIB2_GIT/PLIB.X/dist/default/production/PLIB.X.a(s23_spi.o)
 .debug_line    0x00006086      0x256 ../../PLIB2_GIT/PLIB.X/dist/default/production/PLIB.X.a(s17_adc.o)
 .debug_line    0x000062dc      0x223 ../../PLIB2_GIT/PLIB.X/dist/default/production/PLIB.X.a(s16_output_compare.o)
 .debug_line    0x000064ff      0x4ad ../../PLIB2_GIT/PLIB.X/dist/default/production/PLIB.X.a(s24_i2c.o)
 .debug_line    0x000069ac      0x255 ../../PLIB2_GIT/PLIB.X/dist/default/production/PLIB.X.a(s12_ports.o)
 .debug_line    0x00006c01      0x31d ../../PLIB2_GIT/PLIB.X/dist/default/production/PLIB.X.a(s21_uart.o)
 .debug_line    0x00006f1e      0x4e3 ../../PLIB2_GIT/PLIB.X/dist/default/production/PLIB.X.a(s31_dma.o)
 .debug_line    0x00007401      0x1a5 ../../PLIB2_GIT/PLIB.X/dist/default/production/PLIB.X.a(s07_resets.o)
 .debug_line    0x000075a6      0x29a ../../PLIB2_GIT/PLIB.X/dist/default/production/PLIB.X.a(s08_interrupts.o)
 .debug_line    0x00007840      0x21a ../../PLIB2_GIT/PLIB.X/dist/default/production/PLIB.X.a(s00_system.o)
 .debug_line    0x00007a5a      0x388 ../../PLIB2_GIT/PLIB.X/dist/default/production/PLIB.X.a(s34_can.o)
 .debug_line    0x00007de2       0xaa /Applications/microchip/xc32/v2.41/bin/bin/../../lib/gcc/pic32mx/4.8.3/speed/libgcc.a(_floatundisf.o)
 .debug_line    0x00007e8c       0xf7 /Applications/microchip/xc32/v2.41/bin/bin/../../lib/gcc/pic32mx/4.8.3/speed/libgcc.a(_udivdi3.o)
 .debug_line    0x00007f83      0x109 /Applications/microchip/xc32/v2.41/bin/bin/../../lib/gcc/pic32mx/4.8.3/speed/libgcc.a(_umoddi3.o)
 .debug_line    0x0000808c       0x94 /Applications/microchip/xc32/v2.41/bin/bin/../../lib/gcc/pic32mx/4.8.3/speed/libgcc.a(floatunsisf.o)
 .debug_line    0x00008120       0x93 /Applications/microchip/xc32/v2.41/bin/bin/../../lib/gcc/pic32mx/4.8.3/speed/libgcc.a(floatunsidf.o)
 .debug_line    0x000081b3       0xa6 /Applications/microchip/xc32/v2.41/bin/bin/../../lib/gcc/pic32mx/4.8.3/../../../../pic32mx/lib/speed/libpic32.a(default-bootstrap-exception-handler.o)
 .debug_line    0x00008259       0x93 /Applications/microchip/xc32/v2.41/bin/bin/../../lib/gcc/pic32mx/4.8.3/../../../../pic32mx/lib/speed/libpic32.a(default-on-reset.o)
 .debug_line    0x000082ec       0x97 /Applications/microchip/xc32/v2.41/bin/bin/../../lib/gcc/pic32mx/4.8.3/../../../../pic32mx/lib/speed/libpic32.a(default-on-bootstrap.o)
 .debug_line    0x00008383       0xa4 /Applications/microchip/xc32/v2.41/bin/bin/../../lib/gcc/pic32mx/4.8.3/../../../../pic32mx/lib/speed/libpic32.a(default-general-exception-handler.o)
 .debug_line    0x00008427       0xa5 /Applications/microchip/xc32/v2.41/bin/bin/../../lib/gcc/pic32mx/4.8.3/../../../../pic32mx/lib/speed/libpic32.a(defaultinterrupt.o)
 .debug_line    0x000084cc       0x7e /Applications/microchip/xc32/v2.41/bin/bin/../../lib/gcc/pic32mx/4.8.3/../../../../pic32mx/lib/speed/libc.a(ctypef.o)
 .debug_line    0x0000854a       0x7e /Applications/microchip/xc32/v2.41/bin/bin/../../lib/gcc/pic32mx/4.8.3/../../../../pic32mx/lib/speed/libc.a(malloc.o)
 .debug_line    0x000085c8       0x7e /Applications/microchip/xc32/v2.41/bin/bin/../../lib/gcc/pic32mx/4.8.3/../../../../pic32mx/lib/speed/libc.a(strstr.o)
 .debug_line    0x00008646        0x0 /Applications/microchip/xc32/v2.41/bin/bin/../../lib/gcc/pic32mx/4.8.3/../../../../pic32mx/lib/speed/libc.a(ctype.o)
 .debug_line    0x00008646       0x7e /Applications/microchip/xc32/v2.41/bin/bin/../../lib/gcc/pic32mx/4.8.3/../../../../pic32mx/lib/speed/libc.a(strchr.o)
 .debug_line    0x000086c4       0x7f /Applications/microchip/xc32/v2.41/bin/bin/../../lib/gcc/pic32mx/4.8.3/../../../../pic32mx/lib/speed/libc.a(strncmp.o)
 .debug_line    0x00008743       0x8c /Applications/microchip/xc32/v2.41/bin/bin/../../lib/gcc/pic32mx/4.8.3/../../../../pic32mx/lib/speed/libm.a(w_pow.o)
 .debug_line    0x000087cf       0x8c /Applications/microchip/xc32/v2.41/bin/bin/../../lib/gcc/pic32mx/4.8.3/../../../../pic32mx/lib/speed/libm.a(w_log.o)
 .debug_line    0x0000885b        0x0 /Applications/microchip/xc32/v2.41/bin/bin/../../lib/gcc/pic32mx/4.8.3/../../../../pic32mx/lib/speed/libm.a(s_lib_ver.o)
 .debug_line    0x0000885b       0x87 /Applications/microchip/xc32/v2.41/bin/bin/../../lib/gcc/pic32mx/4.8.3/../../../../pic32mx/lib/speed/libpic32.a(sbrk.o)
 .debug_line    0x000088e2        0x0 /Applications/microchip/xc32/v2.41/bin/bin/../../lib/gcc/pic32mx/4.8.3/../../../../pic32mx/lib/speed/libpic32.a(errno.o)
 .debug_line    0x000088e2       0x88 /Applications/microchip/xc32/v2.41/bin/bin/../../lib/gcc/pic32mx/4.8.3/../../../../pic32mx/lib/speed/libpic32.a(isinf.o)
 .debug_line    0x0000896a       0x8e /Applications/microchip/xc32/v2.41/bin/bin/../../lib/gcc/pic32mx/4.8.3/../../../../pic32mx/lib/speed/libe.a(_unorddf2.o)

.debug_frame    0x00000000     0x2740
 *(.debug_frame)
 .debug_frame   0x00000000       0x74 build/default/production/_ext/1472/config.o
 .debug_frame   0x00000074      0x924 build/default/production/_ext/1472/interrupts.o
 .debug_frame   0x00000998       0x38 build/default/production/_ext/1472/main.o
 .debug_frame   0x000009d0      0x48c ../../PLIB2_GIT/PLIB.X/dist/default/production/PLIB.X.a(_EXAMPLES_.o)
 .debug_frame   0x00000e5c       0x64 ../../PLIB2_GIT/PLIB.X/dist/default/production/PLIB.X.a(_LOG.o)
 .debug_frame   0x00000ec0       0xd4 ../../PLIB2_GIT/PLIB.X/dist/default/production/PLIB.X.a(pink_lady.o)
 .debug_frame   0x00000f94      0x120 ../../PLIB2_GIT/PLIB.X/dist/default/production/PLIB.X.a(sd_card.o)
 .debug_frame   0x000010b4       0x40 ../../PLIB2_GIT/PLIB.X/dist/default/production/PLIB.X.a(e_mcp23s17.o)
 .debug_frame   0x000010f4       0x34 ../../PLIB2_GIT/PLIB.X/dist/default/production/PLIB.X.a(e_at42qt2120.o)
 .debug_frame   0x00001128       0x34 ../../PLIB2_GIT/PLIB.X/dist/default/production/PLIB.X.a(e_pca9685.o)
 .debug_frame   0x0000115c       0x34 ../../PLIB2_GIT/PLIB.X/dist/default/production/PLIB.X.a(e_veml7700.o)
 .debug_frame   0x00001190      0x174 ../../PLIB2_GIT/PLIB.X/dist/default/production/PLIB.X.a(e_tps92662.o)
 .debug_frame   0x00001304       0x30 ../../PLIB2_GIT/PLIB.X/dist/default/production/PLIB.X.a(e_grove_motor_tb6612fng.o)
 .debug_frame   0x00001334      0x180 ../../PLIB2_GIT/PLIB.X/dist/default/production/PLIB.X.a(ble.o)
 .debug_frame   0x000014b4      0x220 ../../PLIB2_GIT/PLIB.X/dist/default/production/PLIB.X.a(utilities.o)
 .debug_frame   0x000016d4      0x10c ../../PLIB2_GIT/PLIB.X/dist/default/production/PLIB.X.a(string_advance.o)
 .debug_frame   0x000017e0       0x5c ../../PLIB2_GIT/PLIB.X/dist/default/production/PLIB.X.a(lin.o)
 .debug_frame   0x0000183c       0x3c ../../PLIB2_GIT/PLIB.X/dist/default/production/PLIB.X.a(software_pwm.o)
 .debug_frame   0x00001878       0x20 ../../PLIB2_GIT/PLIB.X/dist/default/production/PLIB.X.a(crc_16.o)
 .debug_frame   0x00001898       0x2c ../../PLIB2_GIT/PLIB.X/dist/default/production/PLIB.X.a(errors.o)
 .debug_frame   0x000018c4       0x70 ../../PLIB2_GIT/PLIB.X/dist/default/production/PLIB.X.a(s14_timers.o)
 .debug_frame   0x00001934       0xec ../../PLIB2_GIT/PLIB.X/dist/default/production/PLIB.X.a(s23_spi.o)
 .debug_frame   0x00001a20       0x54 ../../PLIB2_GIT/PLIB.X/dist/default/production/PLIB.X.a(s17_adc.o)
 .debug_frame   0x00001a74       0x48 ../../PLIB2_GIT/PLIB.X/dist/default/production/PLIB.X.a(s16_output_compare.o)
 .debug_frame   0x00001abc      0x160 ../../PLIB2_GIT/PLIB.X/dist/default/production/PLIB.X.a(s24_i2c.o)
 .debug_frame   0x00001c1c       0xb8 ../../PLIB2_GIT/PLIB.X/dist/default/production/PLIB.X.a(s12_ports.o)
 .debug_frame   0x00001cd4      0x168 ../../PLIB2_GIT/PLIB.X/dist/default/production/PLIB.X.a(s21_uart.o)
 .debug_frame   0x00001e3c      0x160 ../../PLIB2_GIT/PLIB.X/dist/default/production/PLIB.X.a(s31_dma.o)
 .debug_frame   0x00001f9c       0x28 ../../PLIB2_GIT/PLIB.X/dist/default/production/PLIB.X.a(s07_resets.o)
 .debug_frame   0x00001fc4      0x140 ../../PLIB2_GIT/PLIB.X/dist/default/production/PLIB.X.a(s08_interrupts.o)
 .debug_frame   0x00002104       0x74 ../../PLIB2_GIT/PLIB.X/dist/default/production/PLIB.X.a(s00_system.o)
 .debug_frame   0x00002178       0x54 ../../PLIB2_GIT/PLIB.X/dist/default/production/PLIB.X.a(s34_can.o)
 .debug_frame   0x000021cc       0x2c /Applications/microchip/xc32/v2.41/bin/bin/../../lib/gcc/pic32mx/4.8.3/speed/libgcc.a(_floatundisf.o)
 .debug_frame   0x000021f8       0x20 /Applications/microchip/xc32/v2.41/bin/bin/../../lib/gcc/pic32mx/4.8.3/speed/libgcc.a(_udivdi3.o)
 .debug_frame   0x00002218       0x20 /Applications/microchip/xc32/v2.41/bin/bin/../../lib/gcc/pic32mx/4.8.3/speed/libgcc.a(_umoddi3.o)
 .debug_frame   0x00002238       0x30 /Applications/microchip/xc32/v2.41/bin/bin/../../lib/gcc/pic32mx/4.8.3/speed/libgcc.a(floatunsisf.o)
 .debug_frame   0x00002268       0x2c /Applications/microchip/xc32/v2.41/bin/bin/../../lib/gcc/pic32mx/4.8.3/speed/libgcc.a(floatunsidf.o)
 .debug_frame   0x00002294       0x2c /Applications/microchip/xc32/v2.41/bin/bin/../../lib/gcc/pic32mx/4.8.3/../../../../pic32mx/lib/speed/libpic32.a(default-bootstrap-exception-handler.o)
 .debug_frame   0x000022c0       0x20 /Applications/microchip/xc32/v2.41/bin/bin/../../lib/gcc/pic32mx/4.8.3/../../../../pic32mx/lib/speed/libpic32.a(default-on-reset.o)
 .debug_frame   0x000022e0       0x20 /Applications/microchip/xc32/v2.41/bin/bin/../../lib/gcc/pic32mx/4.8.3/../../../../pic32mx/lib/speed/libpic32.a(default-on-bootstrap.o)
 .debug_frame   0x00002300       0x2c /Applications/microchip/xc32/v2.41/bin/bin/../../lib/gcc/pic32mx/4.8.3/../../../../pic32mx/lib/speed/libpic32.a(default-general-exception-handler.o)
 .debug_frame   0x0000232c       0x20 /Applications/microchip/xc32/v2.41/bin/bin/../../lib/gcc/pic32mx/4.8.3/../../../../pic32mx/lib/speed/libpic32.a(defaultinterrupt.o)
 .debug_frame   0x0000234c      0x120 /Applications/microchip/xc32/v2.41/bin/bin/../../lib/gcc/pic32mx/4.8.3/../../../../pic32mx/lib/speed/libc.a(ctypef.o)
 .debug_frame   0x0000246c       0x7c /Applications/microchip/xc32/v2.41/bin/bin/../../lib/gcc/pic32mx/4.8.3/../../../../pic32mx/lib/speed/libc.a(malloc.o)
 .debug_frame   0x000024e8       0x34 /Applications/microchip/xc32/v2.41/bin/bin/../../lib/gcc/pic32mx/4.8.3/../../../../pic32mx/lib/speed/libc.a(strstr.o)
 .debug_frame   0x0000251c       0x20 /Applications/microchip/xc32/v2.41/bin/bin/../../lib/gcc/pic32mx/4.8.3/../../../../pic32mx/lib/speed/libc.a(strchr.o)
 .debug_frame   0x0000253c       0x20 /Applications/microchip/xc32/v2.41/bin/bin/../../lib/gcc/pic32mx/4.8.3/../../../../pic32mx/lib/speed/libc.a(strncmp.o)
 .debug_frame   0x0000255c       0x38 /Applications/microchip/xc32/v2.41/bin/bin/../../lib/gcc/pic32mx/4.8.3/../../../../pic32mx/lib/speed/libm.a(w_pow.o)
 .debug_frame   0x00002594       0x38 /Applications/microchip/xc32/v2.41/bin/bin/../../lib/gcc/pic32mx/4.8.3/../../../../pic32mx/lib/speed/libm.a(w_log.o)
 .debug_frame   0x000025cc       0xa4 /Applications/microchip/xc32/v2.41/bin/bin/../../lib/gcc/pic32mx/4.8.3/../../../../pic32mx/lib/speed/libpic32.a(sbrk.o)
 .debug_frame   0x00002670       0xb0 /Applications/microchip/xc32/v2.41/bin/bin/../../lib/gcc/pic32mx/4.8.3/../../../../pic32mx/lib/speed/libpic32.a(isinf.o)
 .debug_frame   0x00002720       0x20 /Applications/microchip/xc32/v2.41/bin/bin/../../lib/gcc/pic32mx/4.8.3/../../../../pic32mx/lib/speed/libe.a(_unorddf2.o)

.debug_str      0x00000000      0x6dc
 *(.debug_str)
 .debug_str     0x00000000        0x0 build/default/production/_ext/1472/config.o
 .debug_str     0x00000000        0xc build/default/production/_ext/1472/interrupts.o
 .debug_str     0x0000000c       0x2a build/default/production/_ext/1472/main.o
 .debug_str     0x00000036      0x1fe ../../PLIB2_GIT/PLIB.X/dist/default/production/PLIB.X.a(_EXAMPLES_.o)
 .debug_str     0x00000234       0x16 ../../PLIB2_GIT/PLIB.X/dist/default/production/PLIB.X.a(_LOG.o)
 .debug_str     0x0000024a        0xb ../../PLIB2_GIT/PLIB.X/dist/default/production/PLIB.X.a(pink_lady.o)
 .debug_str     0x00000255      0x105 ../../PLIB2_GIT/PLIB.X/dist/default/production/PLIB.X.a(sd_card.o)
 .debug_str     0x0000035a        0x0 ../../PLIB2_GIT/PLIB.X/dist/default/production/PLIB.X.a(e_mcp23s17.o)
 .debug_str     0x0000035a       0x54 ../../PLIB2_GIT/PLIB.X/dist/default/production/PLIB.X.a(e_at42qt2120.o)
 .debug_str     0x000003ae       0x54 ../../PLIB2_GIT/PLIB.X/dist/default/production/PLIB.X.a(e_pca9685.o)
 .debug_str     0x00000402       0x54 ../../PLIB2_GIT/PLIB.X/dist/default/production/PLIB.X.a(e_veml7700.o)
 .debug_str     0x00000456       0x14 ../../PLIB2_GIT/PLIB.X/dist/default/production/PLIB.X.a(e_tps92662.o)
 .debug_str     0x0000046a       0x54 ../../PLIB2_GIT/PLIB.X/dist/default/production/PLIB.X.a(e_grove_motor_tb6612fng.o)
 .debug_str     0x000004be       0x40 ../../PLIB2_GIT/PLIB.X/dist/default/production/PLIB.X.a(ble.o)
 .debug_str     0x000004fe       0x5e ../../PLIB2_GIT/PLIB.X/dist/default/production/PLIB.X.a(utilities.o)
 .debug_str     0x0000055c        0x0 ../../PLIB2_GIT/PLIB.X/dist/default/production/PLIB.X.a(string_advance.o)
 .debug_str     0x0000055c        0x0 ../../PLIB2_GIT/PLIB.X/dist/default/production/PLIB.X.a(lin.o)
 .debug_str     0x0000055c        0x0 ../../PLIB2_GIT/PLIB.X/dist/default/production/PLIB.X.a(software_pwm.o)
 .debug_str     0x0000055c        0x0 ../../PLIB2_GIT/PLIB.X/dist/default/production/PLIB.X.a(crc_16.o)
 .debug_str     0x0000055c        0x0 ../../PLIB2_GIT/PLIB.X/dist/default/production/PLIB.X.a(errors.o)
 .debug_str     0x0000055c        0x0 ../../PLIB2_GIT/PLIB.X/dist/default/production/PLIB.X.a(s14_timers.o)
 .debug_str     0x0000055c        0xe ../../PLIB2_GIT/PLIB.X/dist/default/production/PLIB.X.a(s23_spi.o)
 .debug_str     0x0000056a        0x0 ../../PLIB2_GIT/PLIB.X/dist/default/production/PLIB.X.a(s17_adc.o)
 .debug_str     0x0000056a        0x0 ../../PLIB2_GIT/PLIB.X/dist/default/production/PLIB.X.a(s16_output_compare.o)
 .debug_str     0x0000056a       0x6c ../../PLIB2_GIT/PLIB.X/dist/default/production/PLIB.X.a(s24_i2c.o)
 .debug_str     0x000005d6        0x0 ../../PLIB2_GIT/PLIB.X/dist/default/production/PLIB.X.a(s12_ports.o)
 .debug_str     0x000005d6       0x4a ../../PLIB2_GIT/PLIB.X/dist/default/production/PLIB.X.a(s21_uart.o)
 .debug_str     0x00000620       0x47 ../../PLIB2_GIT/PLIB.X/dist/default/production/PLIB.X.a(s31_dma.o)
 .debug_str     0x00000667        0x0 ../../PLIB2_GIT/PLIB.X/dist/default/production/PLIB.X.a(s07_resets.o)
 .debug_str     0x00000667       0x1d ../../PLIB2_GIT/PLIB.X/dist/default/production/PLIB.X.a(s08_interrupts.o)
 .debug_str     0x00000684       0x32 ../../PLIB2_GIT/PLIB.X/dist/default/production/PLIB.X.a(s00_system.o)
 .debug_str     0x000006b6       0x26 ../../PLIB2_GIT/PLIB.X/dist/default/production/PLIB.X.a(s34_can.o)
 .debug_str     0x000006dc        0x0 /Applications/microchip/xc32/v2.41/bin/bin/../../lib/gcc/pic32mx/4.8.3/speed/libgcc.a(_floatundisf.o)
 .debug_str     0x000006dc        0x0 /Applications/microchip/xc32/v2.41/bin/bin/../../lib/gcc/pic32mx/4.8.3/speed/libgcc.a(_udivdi3.o)
 .debug_str     0x000006dc        0x0 /Applications/microchip/xc32/v2.41/bin/bin/../../lib/gcc/pic32mx/4.8.3/speed/libgcc.a(_umoddi3.o)
 .debug_str     0x000006dc        0x0 /Applications/microchip/xc32/v2.41/bin/bin/../../lib/gcc/pic32mx/4.8.3/speed/libgcc.a(floatunsisf.o)
 .debug_str     0x000006dc        0x0 /Applications/microchip/xc32/v2.41/bin/bin/../../lib/gcc/pic32mx/4.8.3/speed/libgcc.a(floatunsidf.o)
 .debug_str     0x000006dc        0x0 /Applications/microchip/xc32/v2.41/bin/bin/../../lib/gcc/pic32mx/4.8.3/../../../../pic32mx/lib/speed/libpic32.a(default-bootstrap-exception-handler.o)
 .debug_str     0x000006dc        0x0 /Applications/microchip/xc32/v2.41/bin/bin/../../lib/gcc/pic32mx/4.8.3/../../../../pic32mx/lib/speed/libpic32.a(default-on-reset.o)
 .debug_str     0x000006dc        0x0 /Applications/microchip/xc32/v2.41/bin/bin/../../lib/gcc/pic32mx/4.8.3/../../../../pic32mx/lib/speed/libpic32.a(default-on-bootstrap.o)
 .debug_str     0x000006dc        0x0 /Applications/microchip/xc32/v2.41/bin/bin/../../lib/gcc/pic32mx/4.8.3/../../../../pic32mx/lib/speed/libpic32.a(default-general-exception-handler.o)
 .debug_str     0x000006dc        0x0 /Applications/microchip/xc32/v2.41/bin/bin/../../lib/gcc/pic32mx/4.8.3/../../../../pic32mx/lib/speed/libpic32.a(defaultinterrupt.o)
 .debug_str     0x000006dc        0x0 /Applications/microchip/xc32/v2.41/bin/bin/../../lib/gcc/pic32mx/4.8.3/../../../../pic32mx/lib/speed/libc.a(ctypef.o)
 .debug_str     0x000006dc        0x0 /Applications/microchip/xc32/v2.41/bin/bin/../../lib/gcc/pic32mx/4.8.3/../../../../pic32mx/lib/speed/libc.a(malloc.o)
 .debug_str     0x000006dc        0x0 /Applications/microchip/xc32/v2.41/bin/bin/../../lib/gcc/pic32mx/4.8.3/../../../../pic32mx/lib/speed/libc.a(strstr.o)
 .debug_str     0x000006dc        0x0 /Applications/microchip/xc32/v2.41/bin/bin/../../lib/gcc/pic32mx/4.8.3/../../../../pic32mx/lib/speed/libc.a(ctype.o)
 .debug_str     0x000006dc        0x0 /Applications/microchip/xc32/v2.41/bin/bin/../../lib/gcc/pic32mx/4.8.3/../../../../pic32mx/lib/speed/libc.a(strchr.o)
 .debug_str     0x000006dc        0x0 /Applications/microchip/xc32/v2.41/bin/bin/../../lib/gcc/pic32mx/4.8.3/../../../../pic32mx/lib/speed/libc.a(strncmp.o)
 .debug_str     0x000006dc        0x0 /Applications/microchip/xc32/v2.41/bin/bin/../../lib/gcc/pic32mx/4.8.3/../../../../pic32mx/lib/speed/libm.a(w_pow.o)
 .debug_str     0x000006dc        0x0 /Applications/microchip/xc32/v2.41/bin/bin/../../lib/gcc/pic32mx/4.8.3/../../../../pic32mx/lib/speed/libm.a(w_log.o)
 .debug_str     0x000006dc        0x0 /Applications/microchip/xc32/v2.41/bin/bin/../../lib/gcc/pic32mx/4.8.3/../../../../pic32mx/lib/speed/libm.a(s_lib_ver.o)
 .debug_str     0x000006dc        0x0 /Applications/microchip/xc32/v2.41/bin/bin/../../lib/gcc/pic32mx/4.8.3/../../../../pic32mx/lib/speed/libpic32.a(sbrk.o)
 .debug_str     0x000006dc        0x0 /Applications/microchip/xc32/v2.41/bin/bin/../../lib/gcc/pic32mx/4.8.3/../../../../pic32mx/lib/speed/libpic32.a(errno.o)
 .debug_str     0x000006dc        0x0 /Applications/microchip/xc32/v2.41/bin/bin/../../lib/gcc/pic32mx/4.8.3/../../../../pic32mx/lib/speed/libpic32.a(isinf.o)
 .debug_str     0x000006dc        0x0 /Applications/microchip/xc32/v2.41/bin/bin/../../lib/gcc/pic32mx/4.8.3/../../../../pic32mx/lib/speed/libe.a(_unorddf2.o)

.debug_loc      0x00000000     0xeced
 *(.debug_loc)
 .debug_loc     0x00000000       0x84 build/default/production/_ext/1472/config.o
 .debug_loc     0x00000084       0xbe build/default/production/_ext/1472/interrupts.o
 .debug_loc     0x00000142      0x76b ../../PLIB2_GIT/PLIB.X/dist/default/production/PLIB.X.a(_EXAMPLES_.o)
 .debug_loc     0x000008ad     0x15d2 ../../PLIB2_GIT/PLIB.X/dist/default/production/PLIB.X.a(_LOG.o)
 .debug_loc     0x00001e7f      0x502 ../../PLIB2_GIT/PLIB.X/dist/default/production/PLIB.X.a(pink_lady.o)
 .debug_loc     0x00002381     0x1c7a ../../PLIB2_GIT/PLIB.X/dist/default/production/PLIB.X.a(sd_card.o)
 .debug_loc     0x00003ffb      0x114 ../../PLIB2_GIT/PLIB.X/dist/default/production/PLIB.X.a(e_mcp23s17.o)
 .debug_loc     0x0000410f       0x7b ../../PLIB2_GIT/PLIB.X/dist/default/production/PLIB.X.a(e_at42qt2120.o)
 .debug_loc     0x0000418a       0x7b ../../PLIB2_GIT/PLIB.X/dist/default/production/PLIB.X.a(e_pca9685.o)
 .debug_loc     0x00004205       0x7b ../../PLIB2_GIT/PLIB.X/dist/default/production/PLIB.X.a(e_veml7700.o)
 .debug_loc     0x00004280     0x2728 ../../PLIB2_GIT/PLIB.X/dist/default/production/PLIB.X.a(e_tps92662.o)
 .debug_loc     0x000069a8       0x80 ../../PLIB2_GIT/PLIB.X/dist/default/production/PLIB.X.a(e_grove_motor_tb6612fng.o)
 .debug_loc     0x00006a28      0xa28 ../../PLIB2_GIT/PLIB.X/dist/default/production/PLIB.X.a(ble.o)
 .debug_loc     0x00007450      0xda1 ../../PLIB2_GIT/PLIB.X/dist/default/production/PLIB.X.a(utilities.o)
 .debug_loc     0x000081f1      0x92f ../../PLIB2_GIT/PLIB.X/dist/default/production/PLIB.X.a(string_advance.o)
 .debug_loc     0x00008b20      0x11b ../../PLIB2_GIT/PLIB.X/dist/default/production/PLIB.X.a(lin.o)
 .debug_loc     0x00008c3b       0x4d ../../PLIB2_GIT/PLIB.X/dist/default/production/PLIB.X.a(software_pwm.o)
 .debug_loc     0x00008c88     0x1398 ../../PLIB2_GIT/PLIB.X/dist/default/production/PLIB.X.a(crc_16.o)
 .debug_loc     0x0000a020       0xe4 ../../PLIB2_GIT/PLIB.X/dist/default/production/PLIB.X.a(errors.o)
 .debug_loc     0x0000a104      0x226 ../../PLIB2_GIT/PLIB.X/dist/default/production/PLIB.X.a(s14_timers.o)
 .debug_loc     0x0000a32a      0x4e3 ../../PLIB2_GIT/PLIB.X/dist/default/production/PLIB.X.a(s23_spi.o)
 .debug_loc     0x0000a80d      0x152 ../../PLIB2_GIT/PLIB.X/dist/default/production/PLIB.X.a(s17_adc.o)
 .debug_loc     0x0000a95f      0x282 ../../PLIB2_GIT/PLIB.X/dist/default/production/PLIB.X.a(s16_output_compare.o)
 .debug_loc     0x0000abe1      0xb34 ../../PLIB2_GIT/PLIB.X/dist/default/production/PLIB.X.a(s24_i2c.o)
 .debug_loc     0x0000b715       0xdb ../../PLIB2_GIT/PLIB.X/dist/default/production/PLIB.X.a(s12_ports.o)
 .debug_loc     0x0000b7f0      0xa68 ../../PLIB2_GIT/PLIB.X/dist/default/production/PLIB.X.a(s21_uart.o)
 .debug_loc     0x0000c258      0x959 ../../PLIB2_GIT/PLIB.X/dist/default/production/PLIB.X.a(s31_dma.o)
 .debug_loc     0x0000cbb1      0x25d ../../PLIB2_GIT/PLIB.X/dist/default/production/PLIB.X.a(s08_interrupts.o)
 .debug_loc     0x0000ce0e      0x2e5 ../../PLIB2_GIT/PLIB.X/dist/default/production/PLIB.X.a(s00_system.o)
 .debug_loc     0x0000d0f3      0x453 ../../PLIB2_GIT/PLIB.X/dist/default/production/PLIB.X.a(s34_can.o)
 .debug_loc     0x0000d546       0x40 /Applications/microchip/xc32/v2.41/bin/bin/../../lib/gcc/pic32mx/4.8.3/speed/libgcc.a(_floatundisf.o)
 .debug_loc     0x0000d586      0xa6a /Applications/microchip/xc32/v2.41/bin/bin/../../lib/gcc/pic32mx/4.8.3/speed/libgcc.a(_udivdi3.o)
 .debug_loc     0x0000dff0      0xa3d /Applications/microchip/xc32/v2.41/bin/bin/../../lib/gcc/pic32mx/4.8.3/speed/libgcc.a(_umoddi3.o)
 .debug_loc     0x0000ea2d       0x74 /Applications/microchip/xc32/v2.41/bin/bin/../../lib/gcc/pic32mx/4.8.3/speed/libgcc.a(floatunsisf.o)
 .debug_loc     0x0000eaa1       0x80 /Applications/microchip/xc32/v2.41/bin/bin/../../lib/gcc/pic32mx/4.8.3/speed/libgcc.a(floatunsidf.o)
 .debug_loc     0x0000eb21       0x2c /Applications/microchip/xc32/v2.41/bin/bin/../../lib/gcc/pic32mx/4.8.3/../../../../pic32mx/lib/speed/libpic32.a(default-bootstrap-exception-handler.o)
 .debug_loc     0x0000eb4d       0x2c /Applications/microchip/xc32/v2.41/bin/bin/../../lib/gcc/pic32mx/4.8.3/../../../../pic32mx/lib/speed/libpic32.a(default-general-exception-handler.o)
 .debug_loc     0x0000eb79       0x20 /Applications/microchip/xc32/v2.41/bin/bin/../../lib/gcc/pic32mx/4.8.3/../../../../pic32mx/lib/speed/libm.a(w_pow.o)
 .debug_loc     0x0000eb99       0x2c /Applications/microchip/xc32/v2.41/bin/bin/../../lib/gcc/pic32mx/4.8.3/../../../../pic32mx/lib/speed/libm.a(w_log.o)
 .debug_loc     0x0000ebc5       0x78 /Applications/microchip/xc32/v2.41/bin/bin/../../lib/gcc/pic32mx/4.8.3/../../../../pic32mx/lib/speed/libpic32.a(sbrk.o)
 .debug_loc     0x0000ec3d       0xb0 /Applications/microchip/xc32/v2.41/bin/bin/../../lib/gcc/pic32mx/4.8.3/../../../../pic32mx/lib/speed/libpic32.a(isinf.o)

.debug_macinfo
 *(.debug_macinfo)

.debug_weaknames
 *(.debug_weaknames)

.debug_funcnames
 *(.debug_funcnames)

.debug_typenames
 *(.debug_typenames)

.debug_varnames
 *(.debug_varnames)

.debug_pubtypes
 *(.debug_pubtypes)

.debug_ranges   0x00000000     0x1cd0
 *(.debug_ranges)
 .debug_ranges  0x00000000       0x38 build/default/production/_ext/1472/main.o
 .debug_ranges  0x00000038      0x168 ../../PLIB2_GIT/PLIB.X/dist/default/production/PLIB.X.a(_EXAMPLES_.o)
 .debug_ranges  0x000001a0      0x268 ../../PLIB2_GIT/PLIB.X/dist/default/production/PLIB.X.a(_LOG.o)
 .debug_ranges  0x00000408      0x5a0 ../../PLIB2_GIT/PLIB.X/dist/default/production/PLIB.X.a(sd_card.o)
 .debug_ranges  0x000009a8       0x38 ../../PLIB2_GIT/PLIB.X/dist/default/production/PLIB.X.a(e_mcp23s17.o)
 .debug_ranges  0x000009e0      0x4a0 ../../PLIB2_GIT/PLIB.X/dist/default/production/PLIB.X.a(e_tps92662.o)
 .debug_ranges  0x00000e80       0x18 ../../PLIB2_GIT/PLIB.X/dist/default/production/PLIB.X.a(e_grove_motor_tb6612fng.o)
 .debug_ranges  0x00000e98      0x338 ../../PLIB2_GIT/PLIB.X/dist/default/production/PLIB.X.a(ble.o)
 .debug_ranges  0x000011d0       0x78 ../../PLIB2_GIT/PLIB.X/dist/default/production/PLIB.X.a(utilities.o)
 .debug_ranges  0x00001248       0x30 ../../PLIB2_GIT/PLIB.X/dist/default/production/PLIB.X.a(lin.o)
 .debug_ranges  0x00001278       0x78 ../../PLIB2_GIT/PLIB.X/dist/default/production/PLIB.X.a(s23_spi.o)
 .debug_ranges  0x000012f0      0x180 ../../PLIB2_GIT/PLIB.X/dist/default/production/PLIB.X.a(s24_i2c.o)
 .debug_ranges  0x00001470       0xc8 ../../PLIB2_GIT/PLIB.X/dist/default/production/PLIB.X.a(s21_uart.o)
 .debug_ranges  0x00001538      0x278 ../../PLIB2_GIT/PLIB.X/dist/default/production/PLIB.X.a(s31_dma.o)
 .debug_ranges  0x000017b0       0x60 ../../PLIB2_GIT/PLIB.X/dist/default/production/PLIB.X.a(s00_system.o)
 .debug_ranges  0x00001810      0x188 ../../PLIB2_GIT/PLIB.X/dist/default/production/PLIB.X.a(s34_can.o)
 .debug_ranges  0x00001998       0x98 /Applications/microchip/xc32/v2.41/bin/bin/../../lib/gcc/pic32mx/4.8.3/speed/libgcc.a(_udivdi3.o)
 .debug_ranges  0x00001a30       0xd8 /Applications/microchip/xc32/v2.41/bin/bin/../../lib/gcc/pic32mx/4.8.3/speed/libgcc.a(_umoddi3.o)
 .debug_ranges  0x00001b08       0x10 /Applications/microchip/xc32/v2.41/bin/bin/../../lib/gcc/pic32mx/4.8.3/../../../../pic32mx/lib/speed/libpic32.a(default-bootstrap-exception-handler.o)
 .debug_ranges  0x00001b18       0x10 /Applications/microchip/xc32/v2.41/bin/bin/../../lib/gcc/pic32mx/4.8.3/../../../../pic32mx/lib/speed/libpic32.a(default-on-reset.o)
 .debug_ranges  0x00001b28       0x10 /Applications/microchip/xc32/v2.41/bin/bin/../../lib/gcc/pic32mx/4.8.3/../../../../pic32mx/lib/speed/libpic32.a(default-on-bootstrap.o)
 .debug_ranges  0x00001b38       0x10 /Applications/microchip/xc32/v2.41/bin/bin/../../lib/gcc/pic32mx/4.8.3/../../../../pic32mx/lib/speed/libpic32.a(default-general-exception-handler.o)
 .debug_ranges  0x00001b48       0x10 /Applications/microchip/xc32/v2.41/bin/bin/../../lib/gcc/pic32mx/4.8.3/../../../../pic32mx/lib/speed/libpic32.a(defaultinterrupt.o)
 .debug_ranges  0x00001b58       0x90 /Applications/microchip/xc32/v2.41/bin/bin/../../lib/gcc/pic32mx/4.8.3/../../../../pic32mx/lib/speed/libc.a(ctypef.o)
 .debug_ranges  0x00001be8       0x20 /Applications/microchip/xc32/v2.41/bin/bin/../../lib/gcc/pic32mx/4.8.3/../../../../pic32mx/lib/speed/libc.a(malloc.o)
 .debug_ranges  0x00001c08       0x10 /Applications/microchip/xc32/v2.41/bin/bin/../../lib/gcc/pic32mx/4.8.3/../../../../pic32mx/lib/speed/libc.a(strstr.o)
 .debug_ranges  0x00001c18       0x10 /Applications/microchip/xc32/v2.41/bin/bin/../../lib/gcc/pic32mx/4.8.3/../../../../pic32mx/lib/speed/libc.a(strchr.o)
 .debug_ranges  0x00001c28       0x10 /Applications/microchip/xc32/v2.41/bin/bin/../../lib/gcc/pic32mx/4.8.3/../../../../pic32mx/lib/speed/libc.a(strncmp.o)
 .debug_ranges  0x00001c38       0x10 /Applications/microchip/xc32/v2.41/bin/bin/../../lib/gcc/pic32mx/4.8.3/../../../../pic32mx/lib/speed/libm.a(w_pow.o)
 .debug_ranges  0x00001c48       0x10 /Applications/microchip/xc32/v2.41/bin/bin/../../lib/gcc/pic32mx/4.8.3/../../../../pic32mx/lib/speed/libm.a(w_log.o)
 .debug_ranges  0x00001c58       0x30 /Applications/microchip/xc32/v2.41/bin/bin/../../lib/gcc/pic32mx/4.8.3/../../../../pic32mx/lib/speed/libpic32.a(sbrk.o)
 .debug_ranges  0x00001c88       0x38 /Applications/microchip/xc32/v2.41/bin/bin/../../lib/gcc/pic32mx/4.8.3/../../../../pic32mx/lib/speed/libpic32.a(isinf.o)
 .debug_ranges  0x00001cc0       0x10 /Applications/microchip/xc32/v2.41/bin/bin/../../lib/gcc/pic32mx/4.8.3/../../../../pic32mx/lib/speed/libe.a(_unorddf2.o)

.gnu.attributes
                0x00000000       0x10
 *(.gnu.attributes)
 .gnu.attributes
                0x00000000       0x10 build/default/production/_ext/1472/config.o
 .gnu.attributes
                0x00000010       0x10 build/default/production/_ext/1472/interrupts.o
 .gnu.attributes
                0x00000020       0x10 build/default/production/_ext/1472/main.o
 .gnu.attributes
                0x00000030       0x10 ../../PLIB2_GIT/PLIB.X/dist/default/production/PLIB.X.a(_EXAMPLES_.o)
 .gnu.attributes
                0x00000040       0x10 ../../PLIB2_GIT/PLIB.X/dist/default/production/PLIB.X.a(_LOG.o)
 .gnu.attributes
                0x00000050       0x10 ../../PLIB2_GIT/PLIB.X/dist/default/production/PLIB.X.a(pink_lady.o)
 .gnu.attributes
                0x00000060       0x10 ../../PLIB2_GIT/PLIB.X/dist/default/production/PLIB.X.a(sd_card.o)
 .gnu.attributes
                0x00000070       0x10 ../../PLIB2_GIT/PLIB.X/dist/default/production/PLIB.X.a(e_mcp23s17.o)
 .gnu.attributes
                0x00000080       0x10 ../../PLIB2_GIT/PLIB.X/dist/default/production/PLIB.X.a(e_at42qt2120.o)
 .gnu.attributes
                0x00000090       0x10 ../../PLIB2_GIT/PLIB.X/dist/default/production/PLIB.X.a(e_pca9685.o)
 .gnu.attributes
                0x000000a0       0x10 ../../PLIB2_GIT/PLIB.X/dist/default/production/PLIB.X.a(e_veml7700.o)
 .gnu.attributes
                0x000000b0       0x10 ../../PLIB2_GIT/PLIB.X/dist/default/production/PLIB.X.a(e_tps92662.o)
 .gnu.attributes
                0x000000c0       0x10 ../../PLIB2_GIT/PLIB.X/dist/default/production/PLIB.X.a(e_grove_motor_tb6612fng.o)
 .gnu.attributes
                0x000000d0       0x10 ../../PLIB2_GIT/PLIB.X/dist/default/production/PLIB.X.a(ble.o)
 .gnu.attributes
                0x000000e0       0x10 ../../PLIB2_GIT/PLIB.X/dist/default/production/PLIB.X.a(utilities.o)
 .gnu.attributes
                0x000000f0       0x10 ../../PLIB2_GIT/PLIB.X/dist/default/production/PLIB.X.a(string_advance.o)
 .gnu.attributes
                0x00000100       0x10 ../../PLIB2_GIT/PLIB.X/dist/default/production/PLIB.X.a(lin.o)
 .gnu.attributes
                0x00000110       0x10 ../../PLIB2_GIT/PLIB.X/dist/default/production/PLIB.X.a(software_pwm.o)
 .gnu.attributes
                0x00000120       0x10 ../../PLIB2_GIT/PLIB.X/dist/default/production/PLIB.X.a(crc_16.o)
 .gnu.attributes
                0x00000130       0x10 ../../PLIB2_GIT/PLIB.X/dist/default/production/PLIB.X.a(errors.o)
 .gnu.attributes
                0x00000140       0x10 ../../PLIB2_GIT/PLIB.X/dist/default/production/PLIB.X.a(s14_timers.o)
 .gnu.attributes
                0x00000150       0x10 ../../PLIB2_GIT/PLIB.X/dist/default/production/PLIB.X.a(s23_spi.o)
 .gnu.attributes
                0x00000160       0x10 ../../PLIB2_GIT/PLIB.X/dist/default/production/PLIB.X.a(s17_adc.o)
 .gnu.attributes
                0x00000170       0x10 ../../PLIB2_GIT/PLIB.X/dist/default/production/PLIB.X.a(s16_output_compare.o)
 .gnu.attributes
                0x00000180       0x10 ../../PLIB2_GIT/PLIB.X/dist/default/production/PLIB.X.a(s24_i2c.o)
 .gnu.attributes
                0x00000190       0x10 ../../PLIB2_GIT/PLIB.X/dist/default/production/PLIB.X.a(s12_ports.o)
 .gnu.attributes
                0x000001a0       0x10 ../../PLIB2_GIT/PLIB.X/dist/default/production/PLIB.X.a(s21_uart.o)
 .gnu.attributes
                0x000001b0       0x10 ../../PLIB2_GIT/PLIB.X/dist/default/production/PLIB.X.a(s31_dma.o)
 .gnu.attributes
                0x000001c0       0x10 ../../PLIB2_GIT/PLIB.X/dist/default/production/PLIB.X.a(s07_resets.o)
 .gnu.attributes
                0x000001d0       0x10 ../../PLIB2_GIT/PLIB.X/dist/default/production/PLIB.X.a(s08_interrupts.o)
 .gnu.attributes
                0x000001e0       0x10 ../../PLIB2_GIT/PLIB.X/dist/default/production/PLIB.X.a(s00_system.o)
 .gnu.attributes
                0x000001f0       0x10 ../../PLIB2_GIT/PLIB.X/dist/default/production/PLIB.X.a(s34_can.o)
 .gnu.attributes
                0x00000200       0x10 /Applications/microchip/xc32/v2.41/bin/bin/../../lib/gcc/pic32mx/4.8.3/speed/libgcc.a(_floatundisf.o)
 .gnu.attributes
                0x00000210       0x10 /Applications/microchip/xc32/v2.41/bin/bin/../../lib/gcc/pic32mx/4.8.3/speed/libgcc.a(_udivdi3.o)
 .gnu.attributes
                0x00000220       0x10 /Applications/microchip/xc32/v2.41/bin/bin/../../lib/gcc/pic32mx/4.8.3/speed/libgcc.a(_umoddi3.o)
 .gnu.attributes
                0x00000230       0x10 /Applications/microchip/xc32/v2.41/bin/bin/../../lib/gcc/pic32mx/4.8.3/speed/libgcc.a(floatunsisf.o)
 .gnu.attributes
                0x00000240       0x10 /Applications/microchip/xc32/v2.41/bin/bin/../../lib/gcc/pic32mx/4.8.3/speed/libgcc.a(floatunsidf.o)
 .gnu.attributes
                0x00000250       0x10 /Applications/microchip/xc32/v2.41/bin/bin/../../lib/gcc/pic32mx/4.8.3/../../../../pic32mx/lib/speed/libpic32.a(default-bootstrap-exception-handler.o)
 .gnu.attributes
                0x00000260       0x10 /Applications/microchip/xc32/v2.41/bin/bin/../../lib/gcc/pic32mx/4.8.3/../../../../pic32mx/lib/speed/libpic32.a(default-on-reset.o)
 .gnu.attributes
                0x00000270       0x10 /Applications/microchip/xc32/v2.41/bin/bin/../../lib/gcc/pic32mx/4.8.3/../../../../pic32mx/lib/speed/libpic32.a(default-on-bootstrap.o)
 .gnu.attributes
                0x00000280       0x10 /Applications/microchip/xc32/v2.41/bin/bin/../../lib/gcc/pic32mx/4.8.3/../../../../pic32mx/lib/speed/libpic32.a(default-general-exception-handler.o)
 .gnu.attributes
                0x00000290       0x10 /Applications/microchip/xc32/v2.41/bin/bin/../../lib/gcc/pic32mx/4.8.3/../../../../pic32mx/lib/speed/libpic32.a(defaultinterrupt.o)
 .gnu.attributes
                0x000002a0       0x10 /Applications/microchip/xc32/v2.41/bin/bin/../../lib/gcc/pic32mx/4.8.3/../../../../pic32mx/lib/speed/libc.a(ctypef.o)
 .gnu.attributes
                0x000002b0       0x10 /Applications/microchip/xc32/v2.41/bin/bin/../../lib/gcc/pic32mx/4.8.3/../../../../pic32mx/lib/speed/libc.a(malloc.o)
 .gnu.attributes
                0x000002c0       0x10 /Applications/microchip/xc32/v2.41/bin/bin/../../lib/gcc/pic32mx/4.8.3/../../../../pic32mx/lib/speed/libc.a(strstr.o)
 .gnu.attributes
                0x000002d0       0x10 /Applications/microchip/xc32/v2.41/bin/bin/../../lib/gcc/pic32mx/4.8.3/../../../../pic32mx/lib/speed/libc.a(ctype.o)
 .gnu.attributes
                0x000002e0       0x10 /Applications/microchip/xc32/v2.41/bin/bin/../../lib/gcc/pic32mx/4.8.3/../../../../pic32mx/lib/speed/libc.a(strchr.o)
 .gnu.attributes
                0x000002f0       0x10 /Applications/microchip/xc32/v2.41/bin/bin/../../lib/gcc/pic32mx/4.8.3/../../../../pic32mx/lib/speed/libc.a(strncmp.o)
 .gnu.attributes
                0x00000300       0x10 /Applications/microchip/xc32/v2.41/bin/bin/../../lib/gcc/pic32mx/4.8.3/../../../../pic32mx/lib/speed/libm.a(w_pow.o)
 .gnu.attributes
                0x00000310       0x10 /Applications/microchip/xc32/v2.41/bin/bin/../../lib/gcc/pic32mx/4.8.3/../../../../pic32mx/lib/speed/libm.a(w_log.o)
 .gnu.attributes
                0x00000320       0x10 /Applications/microchip/xc32/v2.41/bin/bin/../../lib/gcc/pic32mx/4.8.3/../../../../pic32mx/lib/speed/libm.a(s_lib_ver.o)
 .gnu.attributes
                0x00000330       0x10 /Applications/microchip/xc32/v2.41/bin/bin/../../lib/gcc/pic32mx/4.8.3/../../../../pic32mx/lib/speed/libpic32.a(sbrk.o)
 .gnu.attributes
                0x00000340       0x10 /Applications/microchip/xc32/v2.41/bin/bin/../../lib/gcc/pic32mx/4.8.3/../../../../pic32mx/lib/speed/libpic32.a(errno.o)
 .gnu.attributes
                0x00000350       0x10 /Applications/microchip/xc32/v2.41/bin/bin/../../lib/gcc/pic32mx/4.8.3/../../../../pic32mx/lib/speed/libpic32.a(isinf.o)
 .gnu.attributes
                0x00000360       0x10 /Applications/microchip/xc32/v2.41/bin/bin/../../lib/gcc/pic32mx/4.8.3/../../../../pic32mx/lib/speed/libe.a(_unorddf2.o)
LOAD /Applications/microchip/xc32/v2.41/bin/bin/../../lib/gcc/pic32mx/4.8.3/speed/libgcc.a
START GROUP
LOAD /Applications/microchip/xc32/v2.41/bin/bin/../../lib/gcc/pic32mx/4.8.3/../../../../pic32mx/lib/speed/libpic32.a
LOAD /Applications/microchip/xc32/v2.41/bin/bin/../../lib/gcc/pic32mx/4.8.3/../../../../pic32mx/lib/speed/libdebug.a
LOAD /Applications/microchip/xc32/v2.41/bin/bin/../../lib/gcc/pic32mx/4.8.3/../../../../pic32mx/lib/speed/libpic32.a
LOAD /Applications/microchip/xc32/v2.41/bin/bin/../../lib/gcc/pic32mx/4.8.3/../../../../pic32mx/lib/speed/libc.a
LOAD /Applications/microchip/xc32/v2.41/bin/bin/../../lib/gcc/pic32mx/4.8.3/../../../../pic32mx/lib/speed/libc.a
LOAD /Applications/microchip/xc32/v2.41/bin/bin/../../lib/gcc/pic32mx/4.8.3/../../../../pic32mx/lib/speed/libm.a
LOAD /Applications/microchip/xc32/v2.41/bin/bin/../../lib/gcc/pic32mx/4.8.3/../../../../pic32mx/lib/speed/libe.a
LOAD /Applications/microchip/xc32/v2.41/bin/bin/../../lib/gcc/pic32mx/4.8.3/../../../../pic32mx/lib/speed/libdsp.a
LOAD /Applications/microchip/xc32/v2.41/bin/bin/../../lib/gcc/pic32mx/4.8.3/speed/libgcc.a
LOAD /Applications/microchip/xc32/v2.41/bin/bin/../../lib/gcc/pic32mx/4.8.3/../../../../pic32mx/lib/speed/libpic32.a
END GROUP
LOAD /Applications/microchip/xc32/v2.41/bin/bin/../../lib/gcc/pic32mx/4.8.3/speed/libgcc.a
OUTPUT(dist/default/production/PROJECT.X.production.elf elf32-tradlittlemips)
LOAD stack
LOAD data_init

.reginfo        0x00000000       0x18
 .reginfo       0x00000000       0x18 /Applications/microchip/xc32/v2.41/bin/bin/../../lib/gcc/pic32mx/4.8.3/../../../../pic32mx/lib/speed/debug-exception-return.o

.stack          0xa000e898        0x0
 .stack         0xa000e898        0x0 stack

.bss            0xa00001cc     0x3ea4
 .bss           0xa00001cc     0x3ea4 ../../PLIB2_GIT/PLIB.X/dist/default/production/PLIB.X.a(_LOG.o)

.data           0xa0004070     0x1d30
 .data          0xa0004070     0x1d30 ../../PLIB2_GIT/PLIB.X/dist/default/production/PLIB.X.a(_EXAMPLES_.o)

.bss            0xa0005da0     0x2f08
 .bss           0xa0005da0     0x1900 ../../PLIB2_GIT/PLIB.X/dist/default/production/PLIB.X.a(pink_lady.o)
 .bss           0xa00076a0     0x1608 ../../PLIB2_GIT/PLIB.X/dist/default/production/PLIB.X.a(_EXAMPLES_.o)

.data           0xa0008ca8      0x460
 .data          0xa0008ca8      0x460 build/default/production/_ext/1472/main.o

.bss            0xa0009108      0x4c8
 .bss           0xa0009108      0x388 ../../PLIB2_GIT/PLIB.X/dist/default/production/PLIB.X.a(sd_card.o)
 .bss           0xa0009490      0x140 build/default/production/_ext/1472/main.o

.bss            0xa00095d0      0x120
 .bss           0xa00095d0      0x120 ../../PLIB2_GIT/PLIB.X/dist/default/production/PLIB.X.a(ble.o)

.data           0xa00096f0      0x188
 .data          0xa00096f0       0xe8 /Applications/microchip/xc32/v2.41/bin/bin/../../lib/gcc/pic32mx/4.8.3/../../../../pic32mx/lib/speed/libm.a(log32.o)
 .data          0xa00097d8       0xa0 /Applications/microchip/xc32/v2.41/bin/bin/../../lib/gcc/pic32mx/4.8.3/../../../../pic32mx/lib/speed/libm.a(exp32.o)

.bss            0xa0009878       0x90
 .bss           0xa0009878       0x60 ../../PLIB2_GIT/PLIB.X/dist/default/production/PLIB.X.a(s31_dma.o)
 .bss           0xa00098d8       0x30 ../../PLIB2_GIT/PLIB.X/dist/default/production/PLIB.X.a(lin.o)

.data           0xa0009908       0x30
 .data          0xa0009908       0x30 ../../PLIB2_GIT/PLIB.X/dist/default/production/PLIB.X.a(s21_uart.o)
                0xa0009908                p_uart_rx_reg
                0xa0009920                p_uart_tx_reg

.bss            0xa0009938       0x58
 .bss           0xa0009938       0x30 ../../PLIB2_GIT/PLIB.X/dist/default/production/PLIB.X.a(s21_uart.o)
 .bss           0xa0009968       0x28 ../../PLIB2_GIT/PLIB.X/dist/default/production/PLIB.X.a(s24_i2c.o)

.bss            0xa0009990       0x24
 .bss           0xa0009990       0x24 /Applications/microchip/xc32/v2.41/bin/bin/../../lib/gcc/pic32mx/4.8.3/../../../../pic32mx/lib/speed/libpic32.a(sbrk.o)
                0xa00099ac                _maxbrk
                0xa00099b0                _minbrk

.data           0xa00099b4       0x20
 .data          0xa00099b4       0x20 ../../PLIB2_GIT/PLIB.X/dist/default/production/PLIB.X.a(s23_spi.o)
                0xa00099b4                p_spi_rx_reg
                0xa00099c4                p_spi_tx_reg

.bss            0xa00099d4       0x38
 .bss           0xa00099d4       0x20 /Applications/microchip/xc32/v2.41/bin/bin/../../lib/gcc/pic32mx/4.8.3/../../../../pic32mx/lib/speed/libc.a(malloc.o)
                0xa00099d4                __allocx
                0xa00099dc                __alloct
                0xa00099e0                __allocp
                0xa00099e4                __allocs
 .bss           0xa00099f4       0x18 ../../PLIB2_GIT/PLIB.X/dist/default/production/PLIB.X.a(e_mcp23s17.o)

.bss            0xa0009a0c       0x28
 .bss           0xa0009a0c       0x14 ../../PLIB2_GIT/PLIB.X/dist/default/production/PLIB.X.a(string_advance.o)
 .bss           0xa0009a20       0x14 ../../PLIB2_GIT/PLIB.X/dist/default/production/PLIB.X.a(s14_timers.o)

.bss            0xa0009a34       0x10
 .bss           0xa0009a34       0x10 ../../PLIB2_GIT/PLIB.X/dist/default/production/PLIB.X.a(s23_spi.o)

.data           0xa0009a44       0x10
 .data          0xa0009a44       0x10 ../../PLIB2_GIT/PLIB.X/dist/default/production/PLIB.X.a(s31_dma.o)

.data.math_errhandling_flag
                0xa0009a54        0x4
 .data.math_errhandling_flag
                0xa0009a54        0x4 /Applications/microchip/xc32/v2.41/bin/bin/../../lib/gcc/pic32mx/4.8.3/../../../../pic32mx/lib/speed/libm.a(s_lib_ver.o)
                0xa0009a54                math_errhandling

.bss.errno      0xa0009a58        0x4
 .bss.errno     0xa0009a58        0x4 /Applications/microchip/xc32/v2.41/bin/bin/../../lib/gcc/pic32mx/4.8.3/../../../../pic32mx/lib/speed/libpic32.a(errno.o)
                0xa0009a58                errno

.bss%z1         0x00000000        0x0
 .bss           0x00000000        0x0 /Applications/microchip/xc32/v2.41/bin/bin/../../lib/gcc/pic32mx/4.8.3/../../../../pic32mx/lib/speed/libe.a(_unorddf2.o)

.data%z2        0x00000000        0x0
 .data          0x00000000        0x0 /Applications/microchip/xc32/v2.41/bin/bin/../../lib/gcc/pic32mx/4.8.3/../../../../pic32mx/lib/speed/libe.a(_unorddf2.o)

.bss%z3         0x00000000        0x0
 .bss           0x00000000        0x0 /Applications/microchip/xc32/v2.41/bin/bin/../../lib/gcc/pic32mx/4.8.3/../../../../pic32mx/lib/speed/libpic32.a(isinf.o)

.data%z4        0x00000000        0x0
 .data          0x00000000        0x0 /Applications/microchip/xc32/v2.41/bin/bin/../../lib/gcc/pic32mx/4.8.3/../../../../pic32mx/lib/speed/libpic32.a(isinf.o)

.bss%z5         0x00000000        0x0
 .bss           0x00000000        0x0 /Applications/microchip/xc32/v2.41/bin/bin/../../lib/gcc/pic32mx/4.8.3/../../../../pic32mx/lib/speed/libpic32.a(errno.o)

.data%z6        0x00000000        0x0
 .data          0x00000000        0x0 /Applications/microchip/xc32/v2.41/bin/bin/../../lib/gcc/pic32mx/4.8.3/../../../../pic32mx/lib/speed/libpic32.a(errno.o)

.data%z7        0x00000000        0x0
 .data          0x00000000        0x0 /Applications/microchip/xc32/v2.41/bin/bin/../../lib/gcc/pic32mx/4.8.3/../../../../pic32mx/lib/speed/libpic32.a(sbrk.o)

.bss%z8         0x00000000        0x0
 .bss           0x00000000        0x0 /Applications/microchip/xc32/v2.41/bin/bin/../../lib/gcc/pic32mx/4.8.3/../../../../pic32mx/lib/speed/libm.a(exp32.o)

.bss%z9         0x00000000        0x0
 .bss           0x00000000        0x0 /Applications/microchip/xc32/v2.41/bin/bin/../../lib/gcc/pic32mx/4.8.3/../../../../pic32mx/lib/speed/libm.a(sigmax.o)

.data%z10       0x00000000        0x0
 .data          0x00000000        0x0 /Applications/microchip/xc32/v2.41/bin/bin/../../lib/gcc/pic32mx/4.8.3/../../../../pic32mx/lib/speed/libm.a(sigmax.o)

.bss%z11        0x00000000        0x0
 .bss           0x00000000        0x0 /Applications/microchip/xc32/v2.41/bin/bin/../../lib/gcc/pic32mx/4.8.3/../../../../pic32mx/lib/speed/libm.a(exmul.o)

.data%z12       0x00000000        0x0
 .data          0x00000000        0x0 /Applications/microchip/xc32/v2.41/bin/bin/../../lib/gcc/pic32mx/4.8.3/../../../../pic32mx/lib/speed/libm.a(exmul.o)

.bss%z13        0x00000000        0x0
 .bss           0x00000000        0x0 /Applications/microchip/xc32/v2.41/bin/bin/../../lib/gcc/pic32mx/4.8.3/../../../../pic32mx/lib/speed/libm.a(exdiv.o)

.data%z14       0x00000000        0x0
 .data          0x00000000        0x0 /Applications/microchip/xc32/v2.41/bin/bin/../../lib/gcc/pic32mx/4.8.3/../../../../pic32mx/lib/speed/libm.a(exdiv.o)

.bss%z15        0x00000000        0x0
 .bss           0x00000000        0x0 /Applications/microchip/xc32/v2.41/bin/bin/../../lib/gcc/pic32mx/4.8.3/../../../../pic32mx/lib/speed/libm.a(exadd.o)

.data%z16       0x00000000        0x0
 .data          0x00000000        0x0 /Applications/microchip/xc32/v2.41/bin/bin/../../lib/gcc/pic32mx/4.8.3/../../../../pic32mx/lib/speed/libm.a(exadd.o)

.bss%z17        0x00000000        0x0
 .bss           0x00000000        0x0 /Applications/microchip/xc32/v2.41/bin/bin/../../lib/gcc/pic32mx/4.8.3/../../../../pic32mx/lib/speed/libm.a(log32.o)

.bss%z18        0x00000000        0x0
 .bss           0x00000000        0x0 /Applications/microchip/xc32/v2.41/bin/bin/../../lib/gcc/pic32mx/4.8.3/../../../../pic32mx/lib/speed/libm.a(pow32.o)

.data%z19       0x00000000        0x0
 .data          0x00000000        0x0 /Applications/microchip/xc32/v2.41/bin/bin/../../lib/gcc/pic32mx/4.8.3/../../../../pic32mx/lib/speed/libm.a(pow32.o)

.bss%z20        0x00000000        0x0
 .bss           0x00000000        0x0 /Applications/microchip/xc32/v2.41/bin/bin/../../lib/gcc/pic32mx/4.8.3/../../../../pic32mx/lib/speed/libm.a(dpmodf.o)

.data%z21       0x00000000        0x0
 .data          0x00000000        0x0 /Applications/microchip/xc32/v2.41/bin/bin/../../lib/gcc/pic32mx/4.8.3/../../../../pic32mx/lib/speed/libm.a(dpmodf.o)

.bss%z22        0x00000000        0x0
 .bss           0x00000000        0x0 /Applications/microchip/xc32/v2.41/bin/bin/../../lib/gcc/pic32mx/4.8.3/../../../../pic32mx/lib/speed/libm.a(s_lib_ver.o)

.data%z23       0x00000000        0x0
 .data          0x00000000        0x0 /Applications/microchip/xc32/v2.41/bin/bin/../../lib/gcc/pic32mx/4.8.3/../../../../pic32mx/lib/speed/libm.a(s_lib_ver.o)

.bss%z24        0x00000000        0x0
 .bss           0x00000000        0x0 /Applications/microchip/xc32/v2.41/bin/bin/../../lib/gcc/pic32mx/4.8.3/../../../../pic32mx/lib/speed/libm.a(sitofp.o)

.data%z25       0x00000000        0x0
 .data          0x00000000        0x0 /Applications/microchip/xc32/v2.41/bin/bin/../../lib/gcc/pic32mx/4.8.3/../../../../pic32mx/lib/speed/libm.a(sitofp.o)

.bss%z26        0x00000000        0x0
 .bss           0x00000000        0x0 /Applications/microchip/xc32/v2.41/bin/bin/../../lib/gcc/pic32mx/4.8.3/../../../../pic32mx/lib/speed/libm.a(litodp.o)

.data%z27       0x00000000        0x0
 .data          0x00000000        0x0 /Applications/microchip/xc32/v2.41/bin/bin/../../lib/gcc/pic32mx/4.8.3/../../../../pic32mx/lib/speed/libm.a(litodp.o)

.bss%z28        0x00000000        0x0
 .bss           0x00000000        0x0 /Applications/microchip/xc32/v2.41/bin/bin/../../lib/gcc/pic32mx/4.8.3/../../../../pic32mx/lib/speed/libm.a(fptoul.o)

.data%z29       0x00000000        0x0
 .data          0x00000000        0x0 /Applications/microchip/xc32/v2.41/bin/bin/../../lib/gcc/pic32mx/4.8.3/../../../../pic32mx/lib/speed/libm.a(fptoul.o)

.bss%z30        0x00000000        0x0
 .bss           0x00000000        0x0 /Applications/microchip/xc32/v2.41/bin/bin/../../lib/gcc/pic32mx/4.8.3/../../../../pic32mx/lib/speed/libm.a(fptodp.o)

.data%z31       0x00000000        0x0
 .data          0x00000000        0x0 /Applications/microchip/xc32/v2.41/bin/bin/../../lib/gcc/pic32mx/4.8.3/../../../../pic32mx/lib/speed/libm.a(fptodp.o)

.bss%z32        0x00000000        0x0
 .bss           0x00000000        0x0 /Applications/microchip/xc32/v2.41/bin/bin/../../lib/gcc/pic32mx/4.8.3/../../../../pic32mx/lib/speed/libm.a(fpcmp.o)

.data%z33       0x00000000        0x0
 .data          0x00000000        0x0 /Applications/microchip/xc32/v2.41/bin/bin/../../lib/gcc/pic32mx/4.8.3/../../../../pic32mx/lib/speed/libm.a(fpcmp.o)

.bss%z34        0x00000000        0x0
 .bss           0x00000000        0x0 /Applications/microchip/xc32/v2.41/bin/bin/../../lib/gcc/pic32mx/4.8.3/../../../../pic32mx/lib/speed/libm.a(fp32subadd.o)

.data%z35       0x00000000        0x0
 .data          0x00000000        0x0 /Applications/microchip/xc32/v2.41/bin/bin/../../lib/gcc/pic32mx/4.8.3/../../../../pic32mx/lib/speed/libm.a(fp32subadd.o)

.bss%z36        0x00000000        0x0
 .bss           0x00000000        0x0 /Applications/microchip/xc32/v2.41/bin/bin/../../lib/gcc/pic32mx/4.8.3/../../../../pic32mx/lib/speed/libm.a(fp32mul.o)

.data%z37       0x00000000        0x0
 .data          0x00000000        0x0 /Applications/microchip/xc32/v2.41/bin/bin/../../lib/gcc/pic32mx/4.8.3/../../../../pic32mx/lib/speed/libm.a(fp32mul.o)

.bss%z38        0x00000000        0x0
 .bss           0x00000000        0x0 /Applications/microchip/xc32/v2.41/bin/bin/../../lib/gcc/pic32mx/4.8.3/../../../../pic32mx/lib/speed/libm.a(fp32div.o)

.data%z39       0x00000000        0x0
 .data          0x00000000        0x0 /Applications/microchip/xc32/v2.41/bin/bin/../../lib/gcc/pic32mx/4.8.3/../../../../pic32mx/lib/speed/libm.a(fp32div.o)

.bss%z40        0x00000000        0x0
 .bss           0x00000000        0x0 /Applications/microchip/xc32/v2.41/bin/bin/../../lib/gcc/pic32mx/4.8.3/../../../../pic32mx/lib/speed/libm.a(dptoul.o)

.data%z41       0x00000000        0x0
 .data          0x00000000        0x0 /Applications/microchip/xc32/v2.41/bin/bin/../../lib/gcc/pic32mx/4.8.3/../../../../pic32mx/lib/speed/libm.a(dptoul.o)

.bss%z42        0x00000000        0x0
 .bss           0x00000000        0x0 /Applications/microchip/xc32/v2.41/bin/bin/../../lib/gcc/pic32mx/4.8.3/../../../../pic32mx/lib/speed/libm.a(dptofp.o)

.data%z43       0x00000000        0x0
 .data          0x00000000        0x0 /Applications/microchip/xc32/v2.41/bin/bin/../../lib/gcc/pic32mx/4.8.3/../../../../pic32mx/lib/speed/libm.a(dptofp.o)

.bss%z44        0x00000000        0x0
 .bss           0x00000000        0x0 /Applications/microchip/xc32/v2.41/bin/bin/../../lib/gcc/pic32mx/4.8.3/../../../../pic32mx/lib/speed/libm.a(dpcmp.o)

.data%z45       0x00000000        0x0
 .data          0x00000000        0x0 /Applications/microchip/xc32/v2.41/bin/bin/../../lib/gcc/pic32mx/4.8.3/../../../../pic32mx/lib/speed/libm.a(dpcmp.o)

.bss%z46        0x00000000        0x0
 .bss           0x00000000        0x0 /Applications/microchip/xc32/v2.41/bin/bin/../../lib/gcc/pic32mx/4.8.3/../../../../pic32mx/lib/speed/libm.a(dp32subadd.o)

.data%z47       0x00000000        0x0
 .data          0x00000000        0x0 /Applications/microchip/xc32/v2.41/bin/bin/../../lib/gcc/pic32mx/4.8.3/../../../../pic32mx/lib/speed/libm.a(dp32subadd.o)

.bss%z48        0x00000000        0x0
 .bss           0x00000000        0x0 /Applications/microchip/xc32/v2.41/bin/bin/../../lib/gcc/pic32mx/4.8.3/../../../../pic32mx/lib/speed/libm.a(dp32mul.o)

.data%z49       0x00000000        0x0
 .data          0x00000000        0x0 /Applications/microchip/xc32/v2.41/bin/bin/../../lib/gcc/pic32mx/4.8.3/../../../../pic32mx/lib/speed/libm.a(dp32mul.o)

.bss%z50        0x00000000        0x0
 .bss           0x00000000        0x0 /Applications/microchip/xc32/v2.41/bin/bin/../../lib/gcc/pic32mx/4.8.3/../../../../pic32mx/lib/speed/libm.a(dp32div.o)

.data%z51       0x00000000        0x0
 .data          0x00000000        0x0 /Applications/microchip/xc32/v2.41/bin/bin/../../lib/gcc/pic32mx/4.8.3/../../../../pic32mx/lib/speed/libm.a(dp32div.o)

.bss%z52        0x00000000        0x0
 .bss           0x00000000        0x0 /Applications/microchip/xc32/v2.41/bin/bin/../../lib/gcc/pic32mx/4.8.3/../../../../pic32mx/lib/speed/libm.a(w_log.o)

.data%z53       0x00000000        0x0
 .data          0x00000000        0x0 /Applications/microchip/xc32/v2.41/bin/bin/../../lib/gcc/pic32mx/4.8.3/../../../../pic32mx/lib/speed/libm.a(w_log.o)

.bss%z54        0x00000000        0x0
 .bss           0x00000000        0x0 /Applications/microchip/xc32/v2.41/bin/bin/../../lib/gcc/pic32mx/4.8.3/../../../../pic32mx/lib/speed/libm.a(w_pow.o)

.data%z55       0x00000000        0x0
 .data          0x00000000        0x0 /Applications/microchip/xc32/v2.41/bin/bin/../../lib/gcc/pic32mx/4.8.3/../../../../pic32mx/lib/speed/libm.a(w_pow.o)

.bss%z56        0x00000000        0x0
 .bss           0x00000000        0x0 /Applications/microchip/xc32/v2.41/bin/bin/../../lib/gcc/pic32mx/4.8.3/../../../../pic32mx/lib/speed/libc.a(strncmp.o)

.data%z57       0x00000000        0x0
 .data          0x00000000        0x0 /Applications/microchip/xc32/v2.41/bin/bin/../../lib/gcc/pic32mx/4.8.3/../../../../pic32mx/lib/speed/libc.a(strncmp.o)

.bss%z58        0x00000000        0x0
 .bss           0x00000000        0x0 /Applications/microchip/xc32/v2.41/bin/bin/../../lib/gcc/pic32mx/4.8.3/../../../../pic32mx/lib/speed/libc.a(strchr.o)

.data%z59       0x00000000        0x0
 .data          0x00000000        0x0 /Applications/microchip/xc32/v2.41/bin/bin/../../lib/gcc/pic32mx/4.8.3/../../../../pic32mx/lib/speed/libc.a(strchr.o)

.bss%z60        0x00000000        0x0
 .bss           0x00000000        0x0 /Applications/microchip/xc32/v2.41/bin/bin/../../lib/gcc/pic32mx/4.8.3/../../../../pic32mx/lib/speed/libc.a(ctype.o)

.data%z61       0x00000000        0x0
 .data          0x00000000        0x0 /Applications/microchip/xc32/v2.41/bin/bin/../../lib/gcc/pic32mx/4.8.3/../../../../pic32mx/lib/speed/libc.a(ctype.o)

.bss%z62        0x00000000        0x0
 .bss           0x00000000        0x0 /Applications/microchip/xc32/v2.41/bin/bin/../../lib/gcc/pic32mx/4.8.3/../../../../pic32mx/lib/speed/libc.a(strstr.o)

.data%z63       0x00000000        0x0
 .data          0x00000000        0x0 /Applications/microchip/xc32/v2.41/bin/bin/../../lib/gcc/pic32mx/4.8.3/../../../../pic32mx/lib/speed/libc.a(strstr.o)

.data%z64       0x00000000        0x0
 .data          0x00000000        0x0 /Applications/microchip/xc32/v2.41/bin/bin/../../lib/gcc/pic32mx/4.8.3/../../../../pic32mx/lib/speed/libc.a(malloc.o)

.bss%z65        0x00000000        0x0
 .bss           0x00000000        0x0 /Applications/microchip/xc32/v2.41/bin/bin/../../lib/gcc/pic32mx/4.8.3/../../../../pic32mx/lib/speed/libc.a(ctypef.o)

.data%z66       0x00000000        0x0
 .data          0x00000000        0x0 /Applications/microchip/xc32/v2.41/bin/bin/../../lib/gcc/pic32mx/4.8.3/../../../../pic32mx/lib/speed/libc.a(ctypef.o)

.bss%z67        0x00000000        0x0
 .bss           0x00000000        0x0 /Applications/microchip/xc32/v2.41/bin/bin/../../lib/gcc/pic32mx/4.8.3/../../../../pic32mx/lib/speed/libpic32.a(defaultinterrupt.o)

.data%z68       0x00000000        0x0
 .data          0x00000000        0x0 /Applications/microchip/xc32/v2.41/bin/bin/../../lib/gcc/pic32mx/4.8.3/../../../../pic32mx/lib/speed/libpic32.a(defaultinterrupt.o)

.bss%z69        0x00000000        0x0
 .bss           0x00000000        0x0 /Applications/microchip/xc32/v2.41/bin/bin/../../lib/gcc/pic32mx/4.8.3/../../../../pic32mx/lib/speed/libpic32.a(default-general-exception-handler.o)

.data%z70       0x00000000        0x0
 .data          0x00000000        0x0 /Applications/microchip/xc32/v2.41/bin/bin/../../lib/gcc/pic32mx/4.8.3/../../../../pic32mx/lib/speed/libpic32.a(default-general-exception-handler.o)

.bss%z71        0x00000000        0x0
 .bss           0x00000000        0x0 /Applications/microchip/xc32/v2.41/bin/bin/../../lib/gcc/pic32mx/4.8.3/../../../../pic32mx/lib/speed/libpic32.a(vector48.o)

.data%z72       0x00000000        0x0
 .data          0x00000000        0x0 /Applications/microchip/xc32/v2.41/bin/bin/../../lib/gcc/pic32mx/4.8.3/../../../../pic32mx/lib/speed/libpic32.a(vector48.o)

.bss%z73        0x00000000        0x0
 .bss           0x00000000        0x0 /Applications/microchip/xc32/v2.41/bin/bin/../../lib/gcc/pic32mx/4.8.3/../../../../pic32mx/lib/speed/libpic32.a(vector45.o)

.data%z74       0x00000000        0x0
 .data          0x00000000        0x0 /Applications/microchip/xc32/v2.41/bin/bin/../../lib/gcc/pic32mx/4.8.3/../../../../pic32mx/lib/speed/libpic32.a(vector45.o)

.bss%z75        0x00000000        0x0
 .bss           0x00000000        0x0 /Applications/microchip/xc32/v2.41/bin/bin/../../lib/gcc/pic32mx/4.8.3/../../../../pic32mx/lib/speed/libpic32.a(vector44.o)

.data%z76       0x00000000        0x0
 .data          0x00000000        0x0 /Applications/microchip/xc32/v2.41/bin/bin/../../lib/gcc/pic32mx/4.8.3/../../../../pic32mx/lib/speed/libpic32.a(vector44.o)

.bss%z77        0x00000000        0x0
 .bss           0x00000000        0x0 /Applications/microchip/xc32/v2.41/bin/bin/../../lib/gcc/pic32mx/4.8.3/../../../../pic32mx/lib/speed/libpic32.a(vector35.o)

.data%z78       0x00000000        0x0
 .data          0x00000000        0x0 /Applications/microchip/xc32/v2.41/bin/bin/../../lib/gcc/pic32mx/4.8.3/../../../../pic32mx/lib/speed/libpic32.a(vector35.o)

.bss%z79        0x00000000        0x0
 .bss           0x00000000        0x0 /Applications/microchip/xc32/v2.41/bin/bin/../../lib/gcc/pic32mx/4.8.3/../../../../pic32mx/lib/speed/libpic32.a(vector34.o)

.data%z80       0x00000000        0x0
 .data          0x00000000        0x0 /Applications/microchip/xc32/v2.41/bin/bin/../../lib/gcc/pic32mx/4.8.3/../../../../pic32mx/lib/speed/libpic32.a(vector34.o)

.bss%z81        0x00000000        0x0
 .bss           0x00000000        0x0 /Applications/microchip/xc32/v2.41/bin/bin/../../lib/gcc/pic32mx/4.8.3/../../../../pic32mx/lib/speed/libpic32.a(vector30.o)

.data%z82       0x00000000        0x0
 .data          0x00000000        0x0 /Applications/microchip/xc32/v2.41/bin/bin/../../lib/gcc/pic32mx/4.8.3/../../../../pic32mx/lib/speed/libpic32.a(vector30.o)

.bss%z83        0x00000000        0x0
 .bss           0x00000000        0x0 /Applications/microchip/xc32/v2.41/bin/bin/../../lib/gcc/pic32mx/4.8.3/../../../../pic32mx/lib/speed/libpic32.a(vector29.o)

.data%z84       0x00000000        0x0
 .data          0x00000000        0x0 /Applications/microchip/xc32/v2.41/bin/bin/../../lib/gcc/pic32mx/4.8.3/../../../../pic32mx/lib/speed/libpic32.a(vector29.o)

.bss%z85        0x00000000        0x0
 .bss           0x00000000        0x0 /Applications/microchip/xc32/v2.41/bin/bin/../../lib/gcc/pic32mx/4.8.3/../../../../pic32mx/lib/speed/libpic32.a(vector28.o)

.data%z86       0x00000000        0x0
 .data          0x00000000        0x0 /Applications/microchip/xc32/v2.41/bin/bin/../../lib/gcc/pic32mx/4.8.3/../../../../pic32mx/lib/speed/libpic32.a(vector28.o)

.bss%z87        0x00000000        0x0
 .bss           0x00000000        0x0 /Applications/microchip/xc32/v2.41/bin/bin/../../lib/gcc/pic32mx/4.8.3/../../../../pic32mx/lib/speed/libpic32.a(vector22.o)

.data%z88       0x00000000        0x0
 .data          0x00000000        0x0 /Applications/microchip/xc32/v2.41/bin/bin/../../lib/gcc/pic32mx/4.8.3/../../../../pic32mx/lib/speed/libpic32.a(vector22.o)

.bss%z89        0x00000000        0x0
 .bss           0x00000000        0x0 /Applications/microchip/xc32/v2.41/bin/bin/../../lib/gcc/pic32mx/4.8.3/../../../../pic32mx/lib/speed/libpic32.a(vector21.o)

.data%z90       0x00000000        0x0
 .data          0x00000000        0x0 /Applications/microchip/xc32/v2.41/bin/bin/../../lib/gcc/pic32mx/4.8.3/../../../../pic32mx/lib/speed/libpic32.a(vector21.o)

.bss%z91        0x00000000        0x0
 .bss           0x00000000        0x0 /Applications/microchip/xc32/v2.41/bin/bin/../../lib/gcc/pic32mx/4.8.3/../../../../pic32mx/lib/speed/libpic32.a(vector19.o)

.data%z92       0x00000000        0x0
 .data          0x00000000        0x0 /Applications/microchip/xc32/v2.41/bin/bin/../../lib/gcc/pic32mx/4.8.3/../../../../pic32mx/lib/speed/libpic32.a(vector19.o)

.bss%z93        0x00000000        0x0
 .bss           0x00000000        0x0 /Applications/microchip/xc32/v2.41/bin/bin/../../lib/gcc/pic32mx/4.8.3/../../../../pic32mx/lib/speed/libpic32.a(vector18.o)

.data%z94       0x00000000        0x0
 .data          0x00000000        0x0 /Applications/microchip/xc32/v2.41/bin/bin/../../lib/gcc/pic32mx/4.8.3/../../../../pic32mx/lib/speed/libpic32.a(vector18.o)

.bss%z95        0x00000000        0x0
 .bss           0x00000000        0x0 /Applications/microchip/xc32/v2.41/bin/bin/../../lib/gcc/pic32mx/4.8.3/../../../../pic32mx/lib/speed/libpic32.a(vector17.o)

.data%z96       0x00000000        0x0
 .data          0x00000000        0x0 /Applications/microchip/xc32/v2.41/bin/bin/../../lib/gcc/pic32mx/4.8.3/../../../../pic32mx/lib/speed/libpic32.a(vector17.o)

.bss%z97        0x00000000        0x0
 .bss           0x00000000        0x0 /Applications/microchip/xc32/v2.41/bin/bin/../../lib/gcc/pic32mx/4.8.3/../../../../pic32mx/lib/speed/libpic32.a(vector15.o)

.data%z98       0x00000000        0x0
 .data          0x00000000        0x0 /Applications/microchip/xc32/v2.41/bin/bin/../../lib/gcc/pic32mx/4.8.3/../../../../pic32mx/lib/speed/libpic32.a(vector15.o)

.bss%z99        0x00000000        0x0
 .bss           0x00000000        0x0 /Applications/microchip/xc32/v2.41/bin/bin/../../lib/gcc/pic32mx/4.8.3/../../../../pic32mx/lib/speed/libpic32.a(vector14.o)

.data%z100      0x00000000        0x0
 .data          0x00000000        0x0 /Applications/microchip/xc32/v2.41/bin/bin/../../lib/gcc/pic32mx/4.8.3/../../../../pic32mx/lib/speed/libpic32.a(vector14.o)

.bss%z101       0x00000000        0x0
 .bss           0x00000000        0x0 /Applications/microchip/xc32/v2.41/bin/bin/../../lib/gcc/pic32mx/4.8.3/../../../../pic32mx/lib/speed/libpic32.a(vector13.o)

.data%z102      0x00000000        0x0
 .data          0x00000000        0x0 /Applications/microchip/xc32/v2.41/bin/bin/../../lib/gcc/pic32mx/4.8.3/../../../../pic32mx/lib/speed/libpic32.a(vector13.o)

.bss%z103       0x00000000        0x0
 .bss           0x00000000        0x0 /Applications/microchip/xc32/v2.41/bin/bin/../../lib/gcc/pic32mx/4.8.3/../../../../pic32mx/lib/speed/libpic32.a(vector11.o)

.data%z104      0x00000000        0x0
 .data          0x00000000        0x0 /Applications/microchip/xc32/v2.41/bin/bin/../../lib/gcc/pic32mx/4.8.3/../../../../pic32mx/lib/speed/libpic32.a(vector11.o)

.bss%z105       0x00000000        0x0
 .bss           0x00000000        0x0 /Applications/microchip/xc32/v2.41/bin/bin/../../lib/gcc/pic32mx/4.8.3/../../../../pic32mx/lib/speed/libpic32.a(vector10.o)

.data%z106      0x00000000        0x0
 .data          0x00000000        0x0 /Applications/microchip/xc32/v2.41/bin/bin/../../lib/gcc/pic32mx/4.8.3/../../../../pic32mx/lib/speed/libpic32.a(vector10.o)

.bss%z107       0x00000000        0x0
 .bss           0x00000000        0x0 /Applications/microchip/xc32/v2.41/bin/bin/../../lib/gcc/pic32mx/4.8.3/../../../../pic32mx/lib/speed/libpic32.a(vector9.o)

.data%z108      0x00000000        0x0
 .data          0x00000000        0x0 /Applications/microchip/xc32/v2.41/bin/bin/../../lib/gcc/pic32mx/4.8.3/../../../../pic32mx/lib/speed/libpic32.a(vector9.o)

.bss%z109       0x00000000        0x0
 .bss           0x00000000        0x0 /Applications/microchip/xc32/v2.41/bin/bin/../../lib/gcc/pic32mx/4.8.3/../../../../pic32mx/lib/speed/libpic32.a(vector7.o)

.data%z110      0x00000000        0x0
 .data          0x00000000        0x0 /Applications/microchip/xc32/v2.41/bin/bin/../../lib/gcc/pic32mx/4.8.3/../../../../pic32mx/lib/speed/libpic32.a(vector7.o)

.bss%z111       0x00000000        0x0
 .bss           0x00000000        0x0 /Applications/microchip/xc32/v2.41/bin/bin/../../lib/gcc/pic32mx/4.8.3/../../../../pic32mx/lib/speed/libpic32.a(vector6.o)

.data%z112      0x00000000        0x0
 .data          0x00000000        0x0 /Applications/microchip/xc32/v2.41/bin/bin/../../lib/gcc/pic32mx/4.8.3/../../../../pic32mx/lib/speed/libpic32.a(vector6.o)

.bss%z113       0x00000000        0x0
 .bss           0x00000000        0x0 /Applications/microchip/xc32/v2.41/bin/bin/../../lib/gcc/pic32mx/4.8.3/../../../../pic32mx/lib/speed/libpic32.a(vector5.o)

.data%z114      0x00000000        0x0
 .data          0x00000000        0x0 /Applications/microchip/xc32/v2.41/bin/bin/../../lib/gcc/pic32mx/4.8.3/../../../../pic32mx/lib/speed/libpic32.a(vector5.o)

.bss%z115       0x00000000        0x0
 .bss           0x00000000        0x0 /Applications/microchip/xc32/v2.41/bin/bin/../../lib/gcc/pic32mx/4.8.3/../../../../pic32mx/lib/speed/libpic32.a(vector3.o)

.data%z116      0x00000000        0x0
 .data          0x00000000        0x0 /Applications/microchip/xc32/v2.41/bin/bin/../../lib/gcc/pic32mx/4.8.3/../../../../pic32mx/lib/speed/libpic32.a(vector3.o)

.bss%z117       0x00000000        0x0
 .bss           0x00000000        0x0 /Applications/microchip/xc32/v2.41/bin/bin/../../lib/gcc/pic32mx/4.8.3/../../../../pic32mx/lib/speed/libpic32.a(vector2.o)

.data%z118      0x00000000        0x0
 .data          0x00000000        0x0 /Applications/microchip/xc32/v2.41/bin/bin/../../lib/gcc/pic32mx/4.8.3/../../../../pic32mx/lib/speed/libpic32.a(vector2.o)

.bss%z119       0x00000000        0x0
 .bss           0x00000000        0x0 /Applications/microchip/xc32/v2.41/bin/bin/../../lib/gcc/pic32mx/4.8.3/../../../../pic32mx/lib/speed/libpic32.a(vector1.o)

.data%z120      0x00000000        0x0
 .data          0x00000000        0x0 /Applications/microchip/xc32/v2.41/bin/bin/../../lib/gcc/pic32mx/4.8.3/../../../../pic32mx/lib/speed/libpic32.a(vector1.o)

.bss%z121       0x00000000        0x0
 .bss           0x00000000        0x0 /Applications/microchip/xc32/v2.41/bin/bin/../../lib/gcc/pic32mx/4.8.3/../../../../pic32mx/lib/speed/libpic32.a(vector0.o)

.data%z122      0x00000000        0x0
 .data          0x00000000        0x0 /Applications/microchip/xc32/v2.41/bin/bin/../../lib/gcc/pic32mx/4.8.3/../../../../pic32mx/lib/speed/libpic32.a(vector0.o)

.bss%z123       0x00000000        0x0
 .bss           0x00000000        0x0 /Applications/microchip/xc32/v2.41/bin/bin/../../lib/gcc/pic32mx/4.8.3/../../../../pic32mx/lib/speed/libpic32.a(general-exception.o)

.data%z124      0x00000000        0x0
 .data          0x00000000        0x0 /Applications/microchip/xc32/v2.41/bin/bin/../../lib/gcc/pic32mx/4.8.3/../../../../pic32mx/lib/speed/libpic32.a(general-exception.o)

.bss%z125       0x00000000        0x0
 .bss           0x00000000        0x0 /Applications/microchip/xc32/v2.41/bin/bin/../../lib/gcc/pic32mx/4.8.3/../../../../pic32mx/lib/speed/libpic32.a(pic32_data_init.o)

.data%z126      0x00000000        0x0
 .data          0x00000000        0x0 /Applications/microchip/xc32/v2.41/bin/bin/../../lib/gcc/pic32mx/4.8.3/../../../../pic32mx/lib/speed/libpic32.a(pic32_data_init.o)

.bss%z127       0x00000000        0x0
 .bss           0x00000000        0x0 /Applications/microchip/xc32/v2.41/bin/bin/../../lib/gcc/pic32mx/4.8.3/../../../../pic32mx/lib/speed/libpic32.a(default-nmi-handler.o)

.data%z128      0x00000000        0x0
 .data          0x00000000        0x0 /Applications/microchip/xc32/v2.41/bin/bin/../../lib/gcc/pic32mx/4.8.3/../../../../pic32mx/lib/speed/libpic32.a(default-nmi-handler.o)

.bss%z129       0x00000000        0x0
 .bss           0x00000000        0x0 /Applications/microchip/xc32/v2.41/bin/bin/../../lib/gcc/pic32mx/4.8.3/../../../../pic32mx/lib/speed/libpic32.a(default-on-bootstrap.o)

.data%z130      0x00000000        0x0
 .data          0x00000000        0x0 /Applications/microchip/xc32/v2.41/bin/bin/../../lib/gcc/pic32mx/4.8.3/../../../../pic32mx/lib/speed/libpic32.a(default-on-bootstrap.o)

.bss%z131       0x00000000        0x0
 .bss           0x00000000        0x0 /Applications/microchip/xc32/v2.41/bin/bin/../../lib/gcc/pic32mx/4.8.3/../../../../pic32mx/lib/speed/libpic32.a(default-on-reset.o)

.data%z132      0x00000000        0x0
 .data          0x00000000        0x0 /Applications/microchip/xc32/v2.41/bin/bin/../../lib/gcc/pic32mx/4.8.3/../../../../pic32mx/lib/speed/libpic32.a(default-on-reset.o)

.bss%z133       0x00000000        0x0
 .bss           0x00000000        0x0 /Applications/microchip/xc32/v2.41/bin/bin/../../lib/gcc/pic32mx/4.8.3/../../../../pic32mx/lib/speed/libpic32.a(default-bootstrap-exception-handler.o)

.data%z134      0x00000000        0x0
 .data          0x00000000        0x0 /Applications/microchip/xc32/v2.41/bin/bin/../../lib/gcc/pic32mx/4.8.3/../../../../pic32mx/lib/speed/libpic32.a(default-bootstrap-exception-handler.o)

.bss%z135       0x00000000        0x0
 .bss           0x00000000        0x0 /Applications/microchip/xc32/v2.41/bin/bin/../../lib/gcc/pic32mx/4.8.3/../../../../pic32mx/lib/speed/libpic32.a(strlen.o)

.data%z136      0x00000000        0x0
 .data          0x00000000        0x0 /Applications/microchip/xc32/v2.41/bin/bin/../../lib/gcc/pic32mx/4.8.3/../../../../pic32mx/lib/speed/libpic32.a(strlen.o)

.bss%z137       0x00000000        0x0
 .bss           0x00000000        0x0 /Applications/microchip/xc32/v2.41/bin/bin/../../lib/gcc/pic32mx/4.8.3/../../../../pic32mx/lib/speed/libpic32.a(strcmp.o)

.data%z138      0x00000000        0x0
 .data          0x00000000        0x0 /Applications/microchip/xc32/v2.41/bin/bin/../../lib/gcc/pic32mx/4.8.3/../../../../pic32mx/lib/speed/libpic32.a(strcmp.o)

.bss%z139       0x00000000        0x0
 .bss           0x00000000        0x0 /Applications/microchip/xc32/v2.41/bin/bin/../../lib/gcc/pic32mx/4.8.3/../../../../pic32mx/lib/speed/libpic32.a(memset.o)

.data%z140      0x00000000        0x0
 .data          0x00000000        0x0 /Applications/microchip/xc32/v2.41/bin/bin/../../lib/gcc/pic32mx/4.8.3/../../../../pic32mx/lib/speed/libpic32.a(memset.o)

.bss%z141       0x00000000        0x0
 .bss           0x00000000        0x0 /Applications/microchip/xc32/v2.41/bin/bin/../../lib/gcc/pic32mx/4.8.3/../../../../pic32mx/lib/speed/libpic32.a(memcpy.o)

.data%z142      0x00000000        0x0
 .data          0x00000000        0x0 /Applications/microchip/xc32/v2.41/bin/bin/../../lib/gcc/pic32mx/4.8.3/../../../../pic32mx/lib/speed/libpic32.a(memcpy.o)

.bss%z143       0x00000000        0x0
 .bss           0x00000000        0x0 /Applications/microchip/xc32/v2.41/bin/bin/../../lib/gcc/pic32mx/4.8.3/speed/libgcc.a(floatunsidf.o)

.data%z144      0x00000000        0x0
 .data          0x00000000        0x0 /Applications/microchip/xc32/v2.41/bin/bin/../../lib/gcc/pic32mx/4.8.3/speed/libgcc.a(floatunsidf.o)

.bss%z145       0x00000000        0x0
 .bss           0x00000000        0x0 /Applications/microchip/xc32/v2.41/bin/bin/../../lib/gcc/pic32mx/4.8.3/speed/libgcc.a(floatunsisf.o)

.data%z146      0x00000000        0x0
 .data          0x00000000        0x0 /Applications/microchip/xc32/v2.41/bin/bin/../../lib/gcc/pic32mx/4.8.3/speed/libgcc.a(floatunsisf.o)

.bss%z147       0x00000000        0x0
 .bss           0x00000000        0x0 /Applications/microchip/xc32/v2.41/bin/bin/../../lib/gcc/pic32mx/4.8.3/speed/libgcc.a(_umoddi3.o)

.data%z148      0x00000000        0x0
 .data          0x00000000        0x0 /Applications/microchip/xc32/v2.41/bin/bin/../../lib/gcc/pic32mx/4.8.3/speed/libgcc.a(_umoddi3.o)

.bss%z149       0x00000000        0x0
 .bss           0x00000000        0x0 /Applications/microchip/xc32/v2.41/bin/bin/../../lib/gcc/pic32mx/4.8.3/speed/libgcc.a(_udivdi3.o)

.data%z150      0x00000000        0x0
 .data          0x00000000        0x0 /Applications/microchip/xc32/v2.41/bin/bin/../../lib/gcc/pic32mx/4.8.3/speed/libgcc.a(_udivdi3.o)

.bss%z151       0x00000000        0x0
 .bss           0x00000000        0x0 /Applications/microchip/xc32/v2.41/bin/bin/../../lib/gcc/pic32mx/4.8.3/speed/libgcc.a(_floatundisf.o)

.data%z152      0x00000000        0x0
 .data          0x00000000        0x0 /Applications/microchip/xc32/v2.41/bin/bin/../../lib/gcc/pic32mx/4.8.3/speed/libgcc.a(_floatundisf.o)

.bss%z153       0x00000000        0x0
 .bss           0x00000000        0x0 /Applications/microchip/xc32/v2.41/bin/bin/../../lib/gcc/pic32mx/4.8.3/../../../../pic32mx/lib/./proc/32MX795F512L/processor.o

.data%z154      0x00000000        0x0
 .data          0x00000000        0x0 /Applications/microchip/xc32/v2.41/bin/bin/../../lib/gcc/pic32mx/4.8.3/../../../../pic32mx/lib/./proc/32MX795F512L/processor.o

.bss%z155       0x00000000        0x0
 .bss           0x00000000        0x0 /Applications/microchip/xc32/v2.41/bin/bin/../../lib/gcc/pic32mx/4.8.3/../../../../pic32mx/lib/speed/pic32_software_reset.o

.data%z156      0x00000000        0x0
 .data          0x00000000        0x0 /Applications/microchip/xc32/v2.41/bin/bin/../../lib/gcc/pic32mx/4.8.3/../../../../pic32mx/lib/speed/pic32_software_reset.o

.bss%z157       0x00000000        0x0
 .bss           0x00000000        0x0 /var/folders/nb/nscgpnq50m3_t2k_4gt8dg080000gn/T//ccoIGrQV.o

.data%z158      0x00000000        0x0
 .data          0x00000000        0x0 /var/folders/nb/nscgpnq50m3_t2k_4gt8dg080000gn/T//ccoIGrQV.o

.bss%z159       0x00000000        0x0
 .bss           0x00000000        0x0 /var/folders/nb/nscgpnq50m3_t2k_4gt8dg080000gn/T//cc2Byh3D.o

.data%z160      0x00000000        0x0
 .data          0x00000000        0x0 /var/folders/nb/nscgpnq50m3_t2k_4gt8dg080000gn/T//cc2Byh3D.o

.bss%z161       0x00000000        0x0
 .bss           0x00000000        0x0 /var/folders/nb/nscgpnq50m3_t2k_4gt8dg080000gn/T//cckU0PY8.o

.data%z162      0x00000000        0x0
 .data          0x00000000        0x0 /var/folders/nb/nscgpnq50m3_t2k_4gt8dg080000gn/T//cckU0PY8.o

.bss%z163       0x00000000        0x0
 .bss           0x00000000        0x0 ../../PLIB2_GIT/PLIB.X/dist/default/production/PLIB.X.a(s34_can.o)

.data%z164      0x00000000        0x0
 .data          0x00000000        0x0 ../../PLIB2_GIT/PLIB.X/dist/default/production/PLIB.X.a(s34_can.o)

.bss%z165       0x00000000        0x0
 .bss           0x00000000        0x0 ../../PLIB2_GIT/PLIB.X/dist/default/production/PLIB.X.a(s00_system.o)

.data%z166      0x00000000        0x0
 .data          0x00000000        0x0 ../../PLIB2_GIT/PLIB.X/dist/default/production/PLIB.X.a(s00_system.o)

.bss%z167       0x00000000        0x0
 .bss           0x00000000        0x0 ../../PLIB2_GIT/PLIB.X/dist/default/production/PLIB.X.a(s08_interrupts.o)

.data%z168      0x00000000        0x0
 .data          0x00000000        0x0 ../../PLIB2_GIT/PLIB.X/dist/default/production/PLIB.X.a(s08_interrupts.o)

.bss%z169       0x00000000        0x0
 .bss           0x00000000        0x0 ../../PLIB2_GIT/PLIB.X/dist/default/production/PLIB.X.a(s07_resets.o)

.data%z170      0x00000000        0x0
 .data          0x00000000        0x0 ../../PLIB2_GIT/PLIB.X/dist/default/production/PLIB.X.a(s07_resets.o)

.bss%z171       0x00000000        0x0
 .bss           0x00000000        0x0 ../../PLIB2_GIT/PLIB.X/dist/default/production/PLIB.X.a(s12_ports.o)

.data%z172      0x00000000        0x0
 .data          0x00000000        0x0 ../../PLIB2_GIT/PLIB.X/dist/default/production/PLIB.X.a(s12_ports.o)

.data%z173      0x00000000        0x0
 .data          0x00000000        0x0 ../../PLIB2_GIT/PLIB.X/dist/default/production/PLIB.X.a(s24_i2c.o)

.bss%z174       0x00000000        0x0
 .bss           0x00000000        0x0 ../../PLIB2_GIT/PLIB.X/dist/default/production/PLIB.X.a(s16_output_compare.o)

.data%z175      0x00000000        0x0
 .data          0x00000000        0x0 ../../PLIB2_GIT/PLIB.X/dist/default/production/PLIB.X.a(s16_output_compare.o)

.bss%z176       0x00000000        0x0
 .bss           0x00000000        0x0 ../../PLIB2_GIT/PLIB.X/dist/default/production/PLIB.X.a(s17_adc.o)

.data%z177      0x00000000        0x0
 .data          0x00000000        0x0 ../../PLIB2_GIT/PLIB.X/dist/default/production/PLIB.X.a(s17_adc.o)

.data%z178      0x00000000        0x0
 .data          0x00000000        0x0 ../../PLIB2_GIT/PLIB.X/dist/default/production/PLIB.X.a(s14_timers.o)

.bss%z179       0x00000000        0x0
 .bss           0x00000000        0x0 ../../PLIB2_GIT/PLIB.X/dist/default/production/PLIB.X.a(errors.o)

.data%z180      0x00000000        0x0
 .data          0x00000000        0x0 ../../PLIB2_GIT/PLIB.X/dist/default/production/PLIB.X.a(errors.o)

.bss%z181       0x00000000        0x0
 .bss           0x00000000        0x0 ../../PLIB2_GIT/PLIB.X/dist/default/production/PLIB.X.a(crc_16.o)

.data%z182      0x00000000        0x0
 .data          0x00000000        0x0 ../../PLIB2_GIT/PLIB.X/dist/default/production/PLIB.X.a(crc_16.o)

.bss%z183       0x00000000        0x0
 .bss           0x00000000        0x0 ../../PLIB2_GIT/PLIB.X/dist/default/production/PLIB.X.a(software_pwm.o)

.data%z184      0x00000000        0x0
 .data          0x00000000        0x0 ../../PLIB2_GIT/PLIB.X/dist/default/production/PLIB.X.a(software_pwm.o)

.data%z185      0x00000000        0x0
 .data          0x00000000        0x0 ../../PLIB2_GIT/PLIB.X/dist/default/production/PLIB.X.a(lin.o)

.data%z186      0x00000000        0x0
 .data          0x00000000        0x0 ../../PLIB2_GIT/PLIB.X/dist/default/production/PLIB.X.a(string_advance.o)

.bss%z187       0x00000000        0x0
 .bss           0x00000000        0x0 ../../PLIB2_GIT/PLIB.X/dist/default/production/PLIB.X.a(utilities.o)

.data%z188      0x00000000        0x0
 .data          0x00000000        0x0 ../../PLIB2_GIT/PLIB.X/dist/default/production/PLIB.X.a(utilities.o)

.data%z189      0x00000000        0x0
 .data          0x00000000        0x0 ../../PLIB2_GIT/PLIB.X/dist/default/production/PLIB.X.a(ble.o)

.bss%z190       0x00000000        0x0
 .bss           0x00000000        0x0 ../../PLIB2_GIT/PLIB.X/dist/default/production/PLIB.X.a(e_grove_motor_tb6612fng.o)

.data%z191      0x00000000        0x0
 .data          0x00000000        0x0 ../../PLIB2_GIT/PLIB.X/dist/default/production/PLIB.X.a(e_grove_motor_tb6612fng.o)

.bss%z192       0x00000000        0x0
 .bss           0x00000000        0x0 ../../PLIB2_GIT/PLIB.X/dist/default/production/PLIB.X.a(e_tps92662.o)

.data%z193      0x00000000        0x0
 .data          0x00000000        0x0 ../../PLIB2_GIT/PLIB.X/dist/default/production/PLIB.X.a(e_tps92662.o)

.bss%z194       0x00000000        0x0
 .bss           0x00000000        0x0 ../../PLIB2_GIT/PLIB.X/dist/default/production/PLIB.X.a(e_veml7700.o)

.data%z195      0x00000000        0x0
 .data          0x00000000        0x0 ../../PLIB2_GIT/PLIB.X/dist/default/production/PLIB.X.a(e_veml7700.o)

.bss%z196       0x00000000        0x0
 .bss           0x00000000        0x0 ../../PLIB2_GIT/PLIB.X/dist/default/production/PLIB.X.a(e_pca9685.o)

.data%z197      0x00000000        0x0
 .data          0x00000000        0x0 ../../PLIB2_GIT/PLIB.X/dist/default/production/PLIB.X.a(e_pca9685.o)

.bss%z198       0x00000000        0x0
 .bss           0x00000000        0x0 ../../PLIB2_GIT/PLIB.X/dist/default/production/PLIB.X.a(e_at42qt2120.o)

.data%z199      0x00000000        0x0
 .data          0x00000000        0x0 ../../PLIB2_GIT/PLIB.X/dist/default/production/PLIB.X.a(e_at42qt2120.o)

.data%z200      0x00000000        0x0
 .data          0x00000000        0x0 ../../PLIB2_GIT/PLIB.X/dist/default/production/PLIB.X.a(e_mcp23s17.o)

.data%z201      0x00000000        0x0
 .data          0x00000000        0x0 ../../PLIB2_GIT/PLIB.X/dist/default/production/PLIB.X.a(sd_card.o)

.data%z202      0x00000000        0x0
 .data          0x00000000        0x0 ../../PLIB2_GIT/PLIB.X/dist/default/production/PLIB.X.a(pink_lady.o)

.data%z203      0x00000000        0x0
 .data          0x00000000        0x0 ../../PLIB2_GIT/PLIB.X/dist/default/production/PLIB.X.a(_LOG.o)

.bss%z204       0x00000000        0x0
 .bss           0x00000000        0x0 build/default/production/_ext/1472/interrupts.o

.data%z205      0x00000000        0x0
 .data          0x00000000        0x0 build/default/production/_ext/1472/interrupts.o

.bss%z206       0x00000000        0x0
 .bss           0x00000000        0x0 build/default/production/_ext/1472/config.o

.data%z207      0x00000000        0x0
 .data          0x00000000        0x0 build/default/production/_ext/1472/config.o

.bss%z208       0x00000000        0x0
 .bss           0x00000000        0x0 /Applications/microchip/xc32/v2.41/bin/bin/../../lib/gcc/pic32mx/4.8.3/../../../../pic32mx/lib/speed/debug-exception-return.o

.data%z209      0x00000000        0x0
 .data          0x00000000        0x0 /Applications/microchip/xc32/v2.41/bin/bin/../../lib/gcc/pic32mx/4.8.3/../../../../pic32mx/lib/speed/debug-exception-return.o

._debug_exception
                0xbfc00480       0x2c
 ._debug_exception
                0xbfc00480       0x2c /Applications/microchip/xc32/v2.41/bin/bin/../../lib/gcc/pic32mx/4.8.3/../../../../pic32mx/lib/speed/debug-exception-return.o
                0xbfc00480                __DbgExecReturn

.text           0x9d000000     0x7df0
 .text          0x9d000000     0x3fc0 ../../PLIB2_GIT/PLIB.X/dist/default/production/PLIB.X.a(sd_card.o)
                0x9d000a58                sd_card_deamon
                0x9d003cec                sd_card_open
                0x9d003d1c                sd_card_read_block_file
                0x9d003dd0                sd_card_read_play_file
 .text          0x9d003fc0     0x3e30 ../../PLIB2_GIT/PLIB.X/dist/default/production/PLIB.X.a(_EXAMPLES_.o)
                0x9d004134                _EXAMPLE_TICK_FUNCTIONS
                0x9d0044c0                _EXAMPLE_TIMER
                0x9d004510                _EXAMPLE_CRC16
                0x9d00464c                _EXAMPLE_DMA_RAM_TO_RAM
                0x9d0047c8                _EXAMPLE_DMA_UART
                0x9d004aa8                _EXAMPLE_DMA_SPI
                0x9d004cf0                _EXAMPLE_PWM
                0x9d004e00                _EXAMPLE_SOFTWARE_PWM
                0x9d004ebc                _EXAMPLE_SWITCH
                0x9d005020                _EXAMPLE_ENCODER
                0x9d005168                _EXAMPLE_AVERAGE_AND_NTC
                0x9d0054a4                _EXAMPLE_25LC512
                0x9d0054ac                _EXAMPLE_MCP23S17
                0x9d0057e8                _EXAMPLE_LOG
                0x9d006078                _EXAMPLE_UART
                0x9d006314                _EXAMPLE_PCA9685
                0x9d0065d4                _EXAMPLE_AT42QT2120
                0x9d006758                _EXAMPLE_VEML7700
                0x9d0068bc                _EXAMPLE_BLE
                0x9d0069f4                _EXAMPLE_CAN
                0x9d006b4c                _EXAMPLE_LIN
                0x9d006d44                _EXAMPLE_PINK_LADY
                0x9d00759c                _EXAMPLE_TPS92662
                0x9d00766c                _EXAMPLE_SD_CARD
                0x9d007880                _EXAMPLE_GROVE_MOTOR_TB6612FNG

.rodata         0x9d007df0     0x3d28
 .rodata        0x9d007df0     0x3d28 ../../PLIB2_GIT/PLIB.X/dist/default/production/PLIB.X.a(_EXAMPLES_.o)

.text           0x9d00bb18     0x5dd4
 .text          0x9d00bb18     0x3474 ../../PLIB2_GIT/PLIB.X/dist/default/production/PLIB.X.a(ble.o)
                0x9d00c260                ble_init
                0x9d00c300                ble_stack_tasks
 .text          0x9d00ef8c     0x2960 ../../PLIB2_GIT/PLIB.X/dist/default/production/PLIB.X.a(e_tps92662.o)
                0x9d00fdf0                e_tps92662_deamon

.text           0x9d0118ec     0x2828
 .text          0x9d0118ec     0x2828 build/default/production/_ext/1472/interrupts.o
                0x9d0118ec                ChangeNoticeHandler
                0x9d011a24                Adc10Handler
                0x9d011b5c                Timer1Handler
                0x9d011c84                Timer2Handler
                0x9d011dc0                Timer3Handler
                0x9d011efc                Timer4Handler
                0x9d012038                Timer5Handler
                0x9d012174                Dma0Handler
                0x9d0122ac                Dma1Handler
                0x9d0123e4                Dma2Handler
                0x9d01251c                Dma3Handler
                0x9d012654                Dma4Handler
                0x9d01278c                Dma5Handler
                0x9d0128c4                Dma6Handler
                0x9d0129fc                Dma7Handler
                0x9d012b34                SPI1Handler
                0x9d012ce0                I2C1Handler
                0x9d012ea8                I2C2Handler
                0x9d013070                I2C3_SPI3_UART1Handler
                0x9d013380                I2C4_SPI2_UART3Handler
                0x9d013690                I2C5_SPI4_UART2Handler
                0x9d0139a0                UART4Handler
                0x9d013b4c                UART5Handler
                0x9d013cf8                UART6Handler
                0x9d013ea4                CAN1Handler
                0x9d013fdc                CAN2Handler

.dinit          0x9d014114     0x25c0
 .dinit         0x9d014114     0x25c0 data_init

.text           0x9d0166d4     0x2e14
 .text          0x9d0166d4     0x1a34 ../../PLIB2_GIT/PLIB.X/dist/default/production/PLIB.X.a(utilities.o)
                0x9d0166d4                fu_switch
                0x9d0168e8                fu_encoder
                0x9d016a24                fu_turn_indicator
                0x9d016bd8                fu_led
                0x9d016e74                fu_rgb_to_hsv
                0x9d0171bc                fu_hsv_to_rgb
                0x9d017414                fu_slider
                0x9d017628                fu_adc_average
                0x9d0177e8                fu_adc_ntc
                0x9d017b44                fu_calc_ntc
                0x9d017db0                fu_hysteresis
                0x9d017e94                fu_bus_management_task
                0x9d017fd0                fu_get_integer_value
                0x9d017fec                fu_get_decimal_value
                0x9d01808c                fu_get_float_value
 .text          0x9d018108     0x13e0 ../../PLIB2_GIT/PLIB.X/dist/default/production/PLIB.X.a(pink_lady.o)
                0x9d018108                pink_lady_deamon
                0x9d018394                pink_lady_set_segment_params
                0x9d01911c                pink_lady_get_segment_status
                0x9d019168                pink_lady_reset_segment
                0x9d0191b8                pink_lady_reset_all_segments
                0x9d019210                pink_lady_shift_pattern

.text           0x9d0194e8      0xf84
 .text          0x9d0194e8      0xf84 ../../PLIB2_GIT/PLIB.X/dist/default/production/PLIB.X.a(_LOG.o)
                0x9d0194e8                log_init
                0x9d019568                log_frontend

.rodata         0x9d01a470      0xf80
 .rodata        0x9d01a470      0xf80 ../../PLIB2_GIT/PLIB.X/dist/default/production/PLIB.X.a(sd_card.o)

.text           0x9d01b3f0     0x1b60
 .text          0x9d01b3f0      0xecc ../../PLIB2_GIT/PLIB.X/dist/default/production/PLIB.X.a(lin.o)
                0x9d01b41c                lin_master_deamon
                0x9d01c23c                lin_force_transfer
 .text          0x9d01c2bc      0xc94 ../../PLIB2_GIT/PLIB.X/dist/default/production/PLIB.X.a(s24_i2c.o)
                0x9d01c2bc                i2c_init_as_master
                0x9d01c548                i2c_enable
                0x9d01c570                i2c_configuration
                0x9d01c590                i2c_set_frequency
                0x9d01c6a0                i2c_start
                0x9d01c6cc                i2c_restart
                0x9d01c6f8                i2c_stop
                0x9d01c724                i2c_receiver_active_sequence
                0x9d01c750                i2c_get_byte
                0x9d01c78c                i2c_send_ack
                0x9d01c7c8                i2c_is_ack_send
                0x9d01c7ec                i2c_is_ack_received
                0x9d01c810                i2c_send_byte
                0x9d01c848                i2c_is_byte_transmitted
                0x9d01c86c                i2c_is_busy
                0x9d01c8e4                i2c_set_slave_address
                0x9d01c90c                i2c_interrupt_handler
                0x9d01c938                i2c_master_state_machine

.rodata         0x9d01cf50      0xa38
 .rodata        0x9d01cf50      0xa38 ../../PLIB2_GIT/PLIB.X/dist/default/production/PLIB.X.a(s08_interrupts.o)
                0x9d01cf50                irq_tab

.text           0x9d01d988     0x11f4
 .text          0x9d01d988      0x934 ../../PLIB2_GIT/PLIB.X/dist/default/production/PLIB.X.a(s31_dma.o)
                0x9d01daf4                dma_init
                0x9d01dc9c                dma_suspend
                0x9d01dccc                dma_resume
                0x9d01dd14                dma_set_channel_event_control
                0x9d01dd58                dma_set_transfer_params
                0x9d01de1c                dma_channel_enable
                0x9d01de68                dma_abord_transfer
                0x9d01de9c                dma_channel_is_enable
                0x9d01debc                dma_get_index_cell_pointer
                0x9d01dedc                dma_get_flags
                0x9d01defc                dma_clear_flags
                0x9d01df1c                dma_get_irq
                0x9d01df30                dma_interrupt_handler
                0x9d01df70                dma_crc_init
                0x9d01e1b8                dma_crc_execute
                0x9d01e290                dma_crc_is_calculated
 .text          0x9d01e2bc      0x8c0 ../../PLIB2_GIT/PLIB.X/dist/default/production/PLIB.X.a(s34_can.o)
                0x9d01e2bc                can_tasks
                0x9d01ea50                can_interrupt_handler

.text           0x9d01eb7c      0xf88
 .text          0x9d01eb7c      0x7f4 ../../PLIB2_GIT/PLIB.X/dist/default/production/PLIB.X.a(string_advance.o)
                0x9d01eb7c                transform_uint8_t_tab_to_string
                0x9d01ee70                str_tolower
                0x9d01ef24                str_toupper
                0x9d01efd8                str_istr
                0x9d01f024                str_sub
                0x9d01f1bc                str_replace
                0x9d01f2bc                str_strip
 .text          0x9d01f370      0x794 build/default/production/_ext/1472/main.o
                0x9d01f370                main

.text           0x9d01fb04      0xc20
 .text          0x9d01fb04      0x648 ../../PLIB2_GIT/PLIB.X/dist/default/production/PLIB.X.a(s21_uart.o)
                0x9d01fb04                uart_init
                0x9d01fdf4                uart_enable
                0x9d01fe50                uart_set_params
                0x9d01fe8c                uart_set_line_control
                0x9d01feb8                uart_set_fifo
                0x9d01fee4                uart_set_adress_detection
                0x9d01ff14                uart_set_baudrate
                0x9d01ff98                uart_get_baudrate
                0x9d01ffb0                uart_transmission_has_completed
                0x9d01ffd0                uart_is_tx_ready
                0x9d01fff4                uart_is_rx_data_available
                0x9d020014                uart_send_break
                0x9d020054                uart_send_data
                0x9d02008c                uart_get_data
                0x9d0200c8                uart_get_tx_irq
                0x9d0200dc                uart_get_rx_irq
                0x9d0200f0                uart_get_tx_reg
                0x9d020108                uart_get_rx_reg
                0x9d020120                uart_interrupt_handler
 .text          0x9d02014c      0x5d8 /Applications/microchip/xc32/v2.41/bin/bin/../../lib/gcc/pic32mx/4.8.3/../../../../pic32mx/lib/speed/libm.a(log32.o)
                0x9d02014c                exlog
                0x9d020434                dplog
                0x9d020434                log
                0x9d020434                __mchp_log
                0x9d020590                log10
                0x9d020590                dplog10
                0x9d020590                __mchp_log10

.text           0x9d020724      0xa94
 .text          0x9d020724      0x574 ../../PLIB2_GIT/PLIB.X/dist/default/production/PLIB.X.a(s23_spi.o)
                0x9d020724                spi_init
                0x9d0209c4                spi_enable
                0x9d0209ec                spi_set_mode
                0x9d020a28                spi_set_frequency
                0x9d020a64                spi_write_and_read_8
                0x9d020af4                spi_write_and_read_16
                0x9d020b84                spi_write_and_read_32
                0x9d020c14                spi_get_tx_irq
                0x9d020c28                spi_get_rx_irq
                0x9d020c3c                spi_get_tx_reg
                0x9d020c54                spi_get_rx_reg
                0x9d020c6c                spi_interrupt_handler
 .text          0x9d020c98      0x520 /Applications/microchip/xc32/v2.41/bin/bin/../../lib/gcc/pic32mx/4.8.3/../../../../pic32mx/lib/speed/libm.a(pow32.o)
                0x9d020c98                pow
                0x9d020c98                dppow
                0x9d020c98                __mchp_pow

.text.dp32mul   0x9d0211b8      0x4b8
 .text.dp32mul  0x9d0211b8      0x4b8 /Applications/microchip/xc32/v2.41/bin/bin/../../lib/gcc/pic32mx/4.8.3/../../../../pic32mx/lib/speed/libm.a(dp32div.o)
                0x9d0211b8                __divdf3
                0x9d0211b8                dpdiv

.text           0x9d021670      0x8bc
 .text          0x9d021670      0x464 /Applications/microchip/xc32/v2.41/bin/bin/../../lib/gcc/pic32mx/4.8.3/speed/libgcc.a(_umoddi3.o)
                0x9d021670                __umoddi3
 .text          0x9d021ad4      0x458 /Applications/microchip/xc32/v2.41/bin/bin/../../lib/gcc/pic32mx/4.8.3/speed/libgcc.a(_udivdi3.o)
                0x9d021ad4                __udivdi3

.text.dp32subadd
                0x9d021f2c      0x430
 .text.dp32subadd
                0x9d021f2c      0x430 /Applications/microchip/xc32/v2.41/bin/bin/../../lib/gcc/pic32mx/4.8.3/../../../../pic32mx/lib/speed/libm.a(dp32subadd.o)
                0x9d021f2c                dpsub
                0x9d021f2c                __subdf3
                0x9d021f34                dpadd
                0x9d021f34                __adddf3

.rodata         0x9d02235c      0x400
 .rodata        0x9d02235c      0x400 ../../PLIB2_GIT/PLIB.X/dist/default/production/PLIB.X.a(pink_lady.o)

.text           0x9d02275c      0x684
 .text          0x9d02275c      0x344 ../../PLIB2_GIT/PLIB.X/dist/default/production/PLIB.X.a(s14_timers.o)
                0x9d02275c                timer_init_2345_us
                0x9d022954                timer_get_period_us
                0x9d022a74                timer_interrupt_handler
 .text          0x9d022aa0      0x340 /Applications/microchip/xc32/v2.41/bin/bin/../../lib/gcc/pic32mx/4.8.3/../../../../pic32mx/lib/speed/libm.a(exp32.o)
                0x9d022aa0                exexp
                0x9d022c84                dpexp
                0x9d022c84                __mchp_exp

.text           0x9d022de0      0x32c
 .text          0x9d022de0      0x32c ../../PLIB2_GIT/PLIB.X/dist/default/production/PLIB.X.a(e_mcp23s17.o)
                0x9d022de0                e_mcp23s17_deamon

.text.dp32mul   0x9d02310c      0x32c
 .text.dp32mul  0x9d02310c      0x32c /Applications/microchip/xc32/v2.41/bin/bin/../../lib/gcc/pic32mx/4.8.3/../../../../pic32mx/lib/speed/libm.a(dp32mul.o)
                0x9d02310c                dpmul
                0x9d02310c                __muldf3

.text           0x9d023438      0x5ec
 .text          0x9d023438      0x30c ../../PLIB2_GIT/PLIB.X/dist/default/production/PLIB.X.a(s08_interrupts.o)
                0x9d023438                irq_link_data_priority
                0x9d023440                irq_change_notice_priority
                0x9d02345c                irq_adc10_priority
                0x9d023478                irq_timer_priority
                0x9d0234a0                irq_dma_priority
                0x9d0234c8                irq_uart_priority
                0x9d0234f0                irq_spi_priority
                0x9d023518                irq_i2c_priority
                0x9d023540                irq_can_priority
                0x9d023568                irq_init
                0x9d023600                irq_clr_flag
                0x9d02362c                irq_set_flag
                0x9d023658                irq_get_flag
                0x9d023684                irq_enable
                0x9d0236c0                irq_disable_interrupts
                0x9d0236cc                irq_enable_interrupts
                0x9d0236d8                irq_restore_interrupts
                0x9d0236f4                irq_enable_system_multi_vectore_interrupts
                0x9d02371c                irq_enable_system_single_vectore_interrupts
 .text          0x9d023744      0x2e0 ../../PLIB2_GIT/PLIB.X/dist/default/production/PLIB.X.a(s16_output_compare.o)
                0x9d023744                pwm_init
                0x9d0239a8                pwm_set_duty_cycle

.text.malloc    0x9d023a24      0x27c
 .text.malloc   0x9d023a24      0x27c /Applications/microchip/xc32/v2.41/bin/bin/../../lib/gcc/pic32mx/4.8.3/../../../../pic32mx/lib/speed/libc.a(malloc.o)
                0x9d023a24                malloc

.text.fpsubadd  0x9d023ca0      0x278
 .text.fpsubadd
                0x9d023ca0      0x278 /Applications/microchip/xc32/v2.41/bin/bin/../../lib/gcc/pic32mx/4.8.3/../../../../pic32mx/lib/speed/libm.a(fp32subadd.o)
                0x9d023ca0                fpsub
                0x9d023ca0                __subsf3
                0x9d023ca8                fpadd
                0x9d023ca8                __addsf3

.text.libm      0x9d023f18      0x268
 .text.libm     0x9d023f18      0x268 /Applications/microchip/xc32/v2.41/bin/bin/../../lib/gcc/pic32mx/4.8.3/../../../../pic32mx/lib/speed/libm.a(exdiv.o)
                0x9d023f18                exdiv

.text           0x9d024180      0x244
 .text          0x9d024180      0x244 ../../PLIB2_GIT/PLIB.X/dist/default/production/PLIB.X.a(errors.o)
                0x9d024180                __errors

.text.fp32div   0x9d0243c4      0x230
 .text.fp32div  0x9d0243c4      0x230 /Applications/microchip/xc32/v2.41/bin/bin/../../lib/gcc/pic32mx/4.8.3/../../../../pic32mx/lib/speed/libm.a(fp32div.o)
                0x9d0243c4                __divsf3
                0x9d0243c4                fpdiv

.text           0x9d0245f4      0x424
 .text          0x9d0245f4      0x21c ../../PLIB2_GIT/PLIB.X/dist/default/production/PLIB.X.a(s12_ports.o)
                0x9d0245f4                ports_change_notice_init
                0x9d024690                ports_reset_all_pins_input
                0x9d024698                ports_reset_pin_input
                0x9d0246d4                ports_reset_pin_output
                0x9d024710                ports_get_bit
                0x9d02474c                ports_set_bit
                0x9d024784                ports_clr_bit
                0x9d0247bc                ports_toggle_bit
                0x9d0247f4                ports_interrupt_handler
 .text          0x9d024810      0x208 ../../PLIB2_GIT/PLIB.X/dist/default/production/PLIB.X.a(s17_adc.o)
                0x9d024810                adc10_init
                0x9d024998                adc10_read
                0x9d0249fc                adc10_interrupt_handler

.rodata         0x9d024a18      0x200
 .rodata        0x9d024a18      0x200 ../../PLIB2_GIT/PLIB.X/dist/default/production/PLIB.X.a(crc_16.o)

.text           0x9d024c18      0x3b0
 .text          0x9d024c18      0x1e0 ../../PLIB2_GIT/PLIB.X/dist/default/production/PLIB.X.a(crc_16.o)
                0x9d024c18                crc16_fast_poly_0x8005
 .text          0x9d024df8      0x1d0 ../../PLIB2_GIT/PLIB.X/dist/default/production/PLIB.X.a(s00_system.o)
                0x9d024df8                system_config_performance
                0x9d024f2c                system_lock
                0x9d024f6c                system_unlock

.text.fp32mul   0x9d024fc8      0x1bc
 .text.fp32mul  0x9d024fc8      0x1bc /Applications/microchip/xc32/v2.41/bin/bin/../../lib/gcc/pic32mx/4.8.3/../../../../pic32mx/lib/speed/libm.a(fp32mul.o)
                0x9d024fc8                fpmul
                0x9d024fc8                __mulsf3

.text._sbrk_init
                0x9d025184      0x194
 .text._sbrk_init
                0x9d025184      0x194 /Applications/microchip/xc32/v2.41/bin/bin/../../lib/gcc/pic32mx/4.8.3/../../../../pic32mx/lib/speed/libpic32.a(sbrk.o)
                0x9d025184                _sbrk_init

.text           0x9d025318      0x184
 .text          0x9d025318      0x184 ../../PLIB2_GIT/PLIB.X/dist/default/production/PLIB.X.a(software_pwm.o)
                0x9d0253f0                software_pwm_init

.text.powl      0x9d02549c      0x174
 .text.powl     0x9d02549c      0x174 /Applications/microchip/xc32/v2.41/bin/bin/../../lib/gcc/pic32mx/4.8.3/../../../../pic32mx/lib/speed/libm.a(w_pow.o)
                0x9d02549c                powl

.text           0x9d025610      0x2d0
 .text          0x9d025610      0x168 /Applications/microchip/xc32/v2.41/bin/bin/../../lib/gcc/pic32mx/4.8.3/../../../../pic32mx/lib/speed/libpic32.a(memcpy.o)
                0x9d025610                memcpy
 .text          0x9d025778      0x168 /Applications/microchip/xc32/v2.41/bin/bin/../../lib/gcc/pic32mx/4.8.3/../../../../pic32mx/lib/speed/libpic32.a(strlen.o)
                0x9d025778                strlen

.text.realloc   0x9d0258e0      0x148
 .text.realloc  0x9d0258e0      0x148 /Applications/microchip/xc32/v2.41/bin/bin/../../lib/gcc/pic32mx/4.8.3/../../../../pic32mx/lib/speed/libc.a(malloc.o)
                0x9d0258e0                realloc

.text.dpcmp     0x9d025a28      0x12c
 .text.dpcmp    0x9d025a28      0x12c /Applications/microchip/xc32/v2.41/bin/bin/../../lib/gcc/pic32mx/4.8.3/../../../../pic32mx/lib/speed/libm.a(dpcmp.o)
                0x9d025a28                __gtdf2
                0x9d025a28                __ltdf2
                0x9d025a28                __gedf2
                0x9d025a28                dpcmp
                0x9d025a28                __ledf2
                0x9d025a28                __nedf2
                0x9d025a28                __eqdf2

.text           0x9d025b54      0x120
 .text          0x9d025b54      0x120 /Applications/microchip/xc32/v2.41/bin/bin/../../lib/gcc/pic32mx/4.8.3/../../../../pic32mx/lib/speed/libpic32.a(strcmp.o)
                0x9d025b54                strcmp

.text.libm      0x9d025c74      0x22c
 .text.libm     0x9d025c74      0x120 /Applications/microchip/xc32/v2.41/bin/bin/../../lib/gcc/pic32mx/4.8.3/../../../../pic32mx/lib/speed/libm.a(dpmodf.o)
                0x9d025c74                modf
                0x9d025c74                modfl
                0x9d025c74                dpmodf
 .text.libm     0x9d025d94      0x10c /Applications/microchip/xc32/v2.41/bin/bin/../../lib/gcc/pic32mx/4.8.3/../../../../pic32mx/lib/speed/libm.a(sigmax.o)
                0x9d025d94                sigmax

.rodata         0x9d025ea0      0x104
 .rodata        0x9d025ea0      0x104 /Applications/microchip/xc32/v2.41/bin/bin/../../lib/gcc/pic32mx/4.8.3/../../../../pic32mx/lib/speed/libc.a(ctype.o)
                0x9d025ea0                _ctype

.text.dptofp    0x9d025fa4      0x100
 .text.dptofp   0x9d025fa4      0x100 /Applications/microchip/xc32/v2.41/bin/bin/../../lib/gcc/pic32mx/4.8.3/../../../../pic32mx/lib/speed/libm.a(dptofp.o)
                0x9d025fa4                dptofp
                0x9d025fa4                __truncdfsf2

.text.libm      0x9d0260a4       0xf0
 .text.libm     0x9d0260a4       0xf0 /Applications/microchip/xc32/v2.41/bin/bin/../../lib/gcc/pic32mx/4.8.3/../../../../pic32mx/lib/speed/libm.a(exadd.o)
                0x9d0260a4                exadd

.text.logl      0x9d026194       0xe8
 .text.logl     0x9d026194       0xe8 /Applications/microchip/xc32/v2.41/bin/bin/../../lib/gcc/pic32mx/4.8.3/../../../../pic32mx/lib/speed/libm.a(w_log.o)
                0x9d026194                logl

.text           0x9d02627c       0xe0
 .text          0x9d02627c       0xe0 build/default/production/_ext/1472/config.o
                0x9d02627c                cfg_pic32
                0x9d0262bc                cfg_ports
                0x9d0262ec                cfg_timers
                0x9d026338                cfg_adc10

.text.general_exception
                0x9d02635c       0xdc
 .text.general_exception
                0x9d02635c       0xdc /Applications/microchip/xc32/v2.41/bin/bin/../../lib/gcc/pic32mx/4.8.3/../../../../pic32mx/lib/speed/libpic32.a(general-exception.o)
                0x9d02635c                _general_exception_context

.text.libm      0x9d026438       0xd0
 .text.libm     0x9d026438       0xd0 /Applications/microchip/xc32/v2.41/bin/bin/../../lib/gcc/pic32mx/4.8.3/../../../../pic32mx/lib/speed/libm.a(exmul.o)
                0x9d026438                exmul

.text._sbrk     0x9d026508       0xc8
 .text._sbrk    0x9d026508       0xc8 /Applications/microchip/xc32/v2.41/bin/bin/../../lib/gcc/pic32mx/4.8.3/../../../../pic32mx/lib/speed/libpic32.a(sbrk.o)
                0x9d026508                _sbrk

.text.fptodp    0x9d0265d0       0xac
 .text.fptodp   0x9d0265d0       0xac /Applications/microchip/xc32/v2.41/bin/bin/../../lib/gcc/pic32mx/4.8.3/../../../../pic32mx/lib/speed/libm.a(fptodp.o)
                0x9d0265d0                __extendsfdf2
                0x9d0265d0                fptodp

.text           0x9d02667c      0x148
 .text          0x9d02667c       0xa8 /Applications/microchip/xc32/v2.41/bin/bin/../../lib/gcc/pic32mx/4.8.3/../../../../pic32mx/lib/speed/libpic32.a(memset.o)
                0x9d02667c                memset
 .text          0x9d026724       0xa0 ../../PLIB2_GIT/PLIB.X/dist/default/production/PLIB.X.a(e_pca9685.o)
                0x9d026724                e_pca9685_deamon

.text.fpcmp     0x9d0267c4       0x9c
 .text.fpcmp    0x9d0267c4       0x9c /Applications/microchip/xc32/v2.41/bin/bin/../../lib/gcc/pic32mx/4.8.3/../../../../pic32mx/lib/speed/libm.a(fpcmp.o)
                0x9d0267c4                __ltsf2
                0x9d0267c4                __eqsf2
                0x9d0267c4                __lesf2
                0x9d0267c4                __gtsf2
                0x9d0267c4                __nesf2
                0x9d0267c4                fpcmp
                0x9d0267c4                __gesf2

.text           0x9d026860      0x128
 .text          0x9d026860       0x98 ../../PLIB2_GIT/PLIB.X/dist/default/production/PLIB.X.a(e_grove_motor_tb6612fng.o)
                0x9d026860                e_grove_motor_tb6612fng_deamon
 .text          0x9d0268f8       0x90 /Applications/microchip/xc32/v2.41/bin/bin/../../lib/gcc/pic32mx/4.8.3/speed/libgcc.a(_floatundisf.o)
                0x9d0268f8                __floatundisf

.text.strstr    0x9d026988       0x90
 .text.strstr   0x9d026988       0x90 /Applications/microchip/xc32/v2.41/bin/bin/../../lib/gcc/pic32mx/4.8.3/../../../../pic32mx/lib/speed/libc.a(strstr.o)
                0x9d026988                strstr

.text.dptoul    0x9d026a18       0x8c
 .text.dptoul   0x9d026a18       0x8c /Applications/microchip/xc32/v2.41/bin/bin/../../lib/gcc/pic32mx/4.8.3/../../../../pic32mx/lib/speed/libm.a(dptoul.o)
                0x9d026a18                __fixunsdfsi
                0x9d026a18                dptoul

.text.isinff    0x9d026aa4       0x8c
 .text.isinff   0x9d026aa4       0x8c /Applications/microchip/xc32/v2.41/bin/bin/../../lib/gcc/pic32mx/4.8.3/../../../../pic32mx/lib/speed/libpic32.a(isinf.o)
                0x9d026aa4                isinff

.text.isinf     0x9d026b30       0x88
 .text.isinf    0x9d026b30       0x88 /Applications/microchip/xc32/v2.41/bin/bin/../../lib/gcc/pic32mx/4.8.3/../../../../pic32mx/lib/speed/libpic32.a(isinf.o)
                0x9d026b30                isinf

.text           0x9d026bb8       0x84
 .text          0x9d026bb8       0x84 /Applications/microchip/xc32/v2.41/bin/bin/../../lib/gcc/pic32mx/4.8.3/../../../../pic32mx/lib/speed/libpic32.a(pic32_data_init.o)
                0x9d026bb8                __pic32_data_init

.text.fptoul    0x9d026c3c       0x7c
 .text.fptoul   0x9d026c3c       0x7c /Applications/microchip/xc32/v2.41/bin/bin/../../lib/gcc/pic32mx/4.8.3/../../../../pic32mx/lib/speed/libm.a(fptoul.o)
                0x9d026c3c                __fixunssfsi
                0x9d026c3c                fptoul
                0x9d026c3c                fptoui

.text.litodp    0x9d026cb8       0x78
 .text.litodp   0x9d026cb8       0x78 /Applications/microchip/xc32/v2.41/bin/bin/../../lib/gcc/pic32mx/4.8.3/../../../../pic32mx/lib/speed/libm.a(litodp.o)
                0x9d026cb8                litodp
                0x9d026cb8                __floatsidf

.text.strncmp   0x9d026d30       0x70
 .text.strncmp  0x9d026d30       0x70 /Applications/microchip/xc32/v2.41/bin/bin/../../lib/gcc/pic32mx/4.8.3/../../../../pic32mx/lib/speed/libc.a(strncmp.o)
                0x9d026d30                strncmp

.text           0x9d026da0       0xd8
 .text          0x9d026da0       0x6c ../../PLIB2_GIT/PLIB.X/dist/default/production/PLIB.X.a(e_at42qt2120.o)
                0x9d026da0                e_at42qt2120_deamon
 .text          0x9d026e0c       0x6c ../../PLIB2_GIT/PLIB.X/dist/default/production/PLIB.X.a(e_veml7700.o)
                0x9d026e0c                e_veml7700_deamon

.text.__unorddf2
                0x9d026e78       0x64
 .text.__unorddf2
                0x9d026e78       0x64 /Applications/microchip/xc32/v2.41/bin/bin/../../lib/gcc/pic32mx/4.8.3/../../../../pic32mx/lib/speed/libe.a(_unorddf2.o)
                0x9d026e78                __unorddf2

.rodata         0x9d026ee0       0x60
 .rodata        0x9d026ee0       0x60 ../../PLIB2_GIT/PLIB.X/dist/default/production/PLIB.X.a(utilities.o)

.text.sitofp    0x9d026f40       0x60
 .text.sitofp   0x9d026f40       0x60 /Applications/microchip/xc32/v2.41/bin/bin/../../lib/gcc/pic32mx/4.8.3/../../../../pic32mx/lib/speed/libm.a(sitofp.o)
                0x9d026f40                __floatsisf
                0x9d026f40                sitofp
                0x9d026f40                litofp

.text.main_entry
                0x9d026fa0       0x54
 .text.main_entry
                0x9d026fa0       0x54 /var/folders/nb/nscgpnq50m3_t2k_4gt8dg080000gn/T//cckU0PY8.o
                0x9d026fd4                __crt0_exit

.rodata         0x9d026ff8       0x50
 .rodata        0x9d026ff8       0x50 ../../PLIB2_GIT/PLIB.X/dist/default/production/PLIB.X.a(s14_timers.o)

.text.sbrk      0x9d027048       0x50
 .text.sbrk     0x9d027048       0x50 /Applications/microchip/xc32/v2.41/bin/bin/../../lib/gcc/pic32mx/4.8.3/../../../../pic32mx/lib/speed/libpic32.a(sbrk.o)
                0x9d027048                sbrk

.text           0x9d027098       0x4c
 .text          0x9d027098       0x4c /Applications/microchip/xc32/v2.41/bin/bin/../../lib/gcc/pic32mx/4.8.3/speed/libgcc.a(floatunsisf.o)
                0x9d027098                __floatunsisf

.text._bootstrap_exception_handler
                0x9d0270e4       0x48
 .text._bootstrap_exception_handler
                0x9d0270e4       0x48 /Applications/microchip/xc32/v2.41/bin/bin/../../lib/gcc/pic32mx/4.8.3/../../../../pic32mx/lib/speed/libpic32.a(default-bootstrap-exception-handler.o)
                0x9d0270e4                _bootstrap_exception_handler

.text._general_exception_handler
                0x9d02712c       0x48
 .text._general_exception_handler
                0x9d02712c       0x48 /Applications/microchip/xc32/v2.41/bin/bin/../../lib/gcc/pic32mx/4.8.3/../../../../pic32mx/lib/speed/libpic32.a(default-general-exception-handler.o)
                0x9d02712c                _general_exception_handler

.vector_default
                0x9d027174       0x48
 .vector_default
                0x9d027174       0x48 /Applications/microchip/xc32/v2.41/bin/bin/../../lib/gcc/pic32mx/4.8.3/../../../../pic32mx/lib/speed/libpic32.a(defaultinterrupt.o)
                0x9d027174                _DefaultInterrupt

.text           0x9d0271bc       0x88
 .text          0x9d0271bc       0x44 /Applications/microchip/xc32/v2.41/bin/bin/../../lib/gcc/pic32mx/4.8.3/../../../../pic32mx/lib/speed/pic32_software_reset.o
                0x9d0271bc                __pic32_software_reset
 .text          0x9d027200       0x44 /Applications/microchip/xc32/v2.41/bin/bin/../../lib/gcc/pic32mx/4.8.3/speed/libgcc.a(floatunsidf.o)
                0x9d027200                __floatunsidf

.rodata         0x9d027244       0x80
 .rodata        0x9d027244       0x40 build/default/production/_ext/1472/config.o
                0x9d027244                IrqDataPriorityTab
 .rodata        0x9d027284       0x40 ../../PLIB2_GIT/PLIB.X/dist/default/production/PLIB.X.a(e_tps92662.o)

.rodata         0x9d0272c4       0x38
 .rodata        0x9d0272c4       0x38 ../../PLIB2_GIT/PLIB.X/dist/default/production/PLIB.X.a(s23_spi.o)
                0x9d0272e4                spi_rx_irq
                0x9d0272e8                spi_tx_irq

.text.isnanf    0x9d0272fc       0x34
 .text.isnanf   0x9d0272fc       0x34 /Applications/microchip/xc32/v2.41/bin/bin/../../lib/gcc/pic32mx/4.8.3/../../../../pic32mx/lib/speed/libpic32.a(isinf.o)
                0x9d0272fc                isnanf

.rodata         0x9d027330       0x30
 .rodata        0x9d027330       0x30 build/default/production/_ext/1472/main.o

.text.free      0x9d027360       0x30
 .text.free     0x9d027360       0x30 /Applications/microchip/xc32/v2.41/bin/bin/../../lib/gcc/pic32mx/4.8.3/../../../../pic32mx/lib/speed/libc.a(malloc.o)
                0x9d027360                free

.rodata         0x9d027390       0x2c
 .rodata        0x9d027390       0x2c ../../PLIB2_GIT/PLIB.X/dist/default/production/PLIB.X.a(s31_dma.o)
                0x9d027390                dma_irq

.text           0x9d0273bc       0x2c
 .text          0x9d0273bc       0x2c ../../PLIB2_GIT/PLIB.X/dist/default/production/PLIB.X.a(s07_resets.o)
                0x9d0273bc                software_reset

.text.strchr    0x9d0273e8       0x2c
 .text.strchr   0x9d0273e8       0x2c /Applications/microchip/xc32/v2.41/bin/bin/../../lib/gcc/pic32mx/4.8.3/../../../../pic32mx/lib/speed/libc.a(strchr.o)
                0x9d0273e8                strchr

.text._stub_sbd_memlayout
                0x9d027414       0x2c
 .text._stub_sbd_memlayout
                0x9d027414       0x2c /Applications/microchip/xc32/v2.41/bin/bin/../../lib/gcc/pic32mx/4.8.3/../../../../pic32mx/lib/speed/libpic32.a(sbrk.o)
                0x9d027414                _stub_sbd_memlayout
                0x9d027414                _sbd_memlayout

.rodata         0x9d027440       0x50
 .rodata        0x9d027440       0x28 ../../PLIB2_GIT/PLIB.X/dist/default/production/PLIB.X.a(software_pwm.o)
 .rodata        0x9d027468       0x28 ../../PLIB2_GIT/PLIB.X/dist/default/production/PLIB.X.a(s24_i2c.o)

.rodata         0x9d027490       0x28
 .rodata        0x9d027490       0x28 ../../PLIB2_GIT/PLIB.X/dist/default/production/PLIB.X.a(s21_uart.o)
                0x9d027490                uart_rx_irq
                0x9d027498                uart_tx_irq

.text.isnanl    0x9d0274b8       0x28
 .text.isnanl   0x9d0274b8       0x28 /Applications/microchip/xc32/v2.41/bin/bin/../../lib/gcc/pic32mx/4.8.3/../../../../pic32mx/lib/speed/libpic32.a(isinf.o)
                0x9d0274b8                isnanl

.text.isinfl    0x9d0274e0       0x28
 .text.isinfl   0x9d0274e0       0x28 /Applications/microchip/xc32/v2.41/bin/bin/../../lib/gcc/pic32mx/4.8.3/../../../../pic32mx/lib/speed/libpic32.a(isinf.o)
                0x9d0274e0                isinfl

.text.tolower   0x9d027508       0x24
 .text.tolower  0x9d027508       0x24 /Applications/microchip/xc32/v2.41/bin/bin/../../lib/gcc/pic32mx/4.8.3/../../../../pic32mx/lib/speed/libc.a(ctypef.o)
                0x9d027508                tolower

.text.toupper   0x9d02752c       0x24
 .text.toupper  0x9d02752c       0x24 /Applications/microchip/xc32/v2.41/bin/bin/../../lib/gcc/pic32mx/4.8.3/../../../../pic32mx/lib/speed/libc.a(ctypef.o)
                0x9d02752c                toupper

.text.isnan     0x9d027550       0x24
 .text.isnan    0x9d027550       0x24 /Applications/microchip/xc32/v2.41/bin/bin/../../lib/gcc/pic32mx/4.8.3/../../../../pic32mx/lib/speed/libpic32.a(isinf.o)
                0x9d027550                isnan

.rodata         0x9d027578       0x3c
 .rodata        0x9d027578       0x20 ../../PLIB2_GIT/PLIB.X/dist/default/production/PLIB.X.a(s16_output_compare.o)
 .rodata        0x9d027598       0x1c ../../PLIB2_GIT/PLIB.X/dist/default/production/PLIB.X.a(s12_ports.o)

.rodata         0x9d0275b4       0x18
 .rodata        0x9d0275b4       0x18 ../../PLIB2_GIT/PLIB.X/dist/default/production/PLIB.X.a(errors.o)

.text           0x9d0275cc       0x18
 .text          0x9d0275cc       0x18 /Applications/microchip/xc32/v2.41/bin/bin/../../lib/gcc/pic32mx/4.8.3/../../../../pic32mx/lib/speed/libpic32.a(default-nmi-handler.o)
                0x9d0275cc                _nmi_handler

.text.isalnum   0x9d0275e4       0x18
 .text.isalnum  0x9d0275e4       0x18 /Applications/microchip/xc32/v2.41/bin/bin/../../lib/gcc/pic32mx/4.8.3/../../../../pic32mx/lib/speed/libc.a(ctypef.o)
                0x9d0275e4                isalnum

.text.isalpha   0x9d0275fc       0x18
 .text.isalpha  0x9d0275fc       0x18 /Applications/microchip/xc32/v2.41/bin/bin/../../lib/gcc/pic32mx/4.8.3/../../../../pic32mx/lib/speed/libc.a(ctypef.o)
                0x9d0275fc                isalpha

.text.iscntrl   0x9d027614       0x18
 .text.iscntrl  0x9d027614       0x18 /Applications/microchip/xc32/v2.41/bin/bin/../../lib/gcc/pic32mx/4.8.3/../../../../pic32mx/lib/speed/libc.a(ctypef.o)
                0x9d027614                iscntrl

.text.isdigit   0x9d02762c       0x18
 .text.isdigit  0x9d02762c       0x18 /Applications/microchip/xc32/v2.41/bin/bin/../../lib/gcc/pic32mx/4.8.3/../../../../pic32mx/lib/speed/libc.a(ctypef.o)
                0x9d02762c                isdigit

.text.isgraph   0x9d027644       0x18
 .text.isgraph  0x9d027644       0x18 /Applications/microchip/xc32/v2.41/bin/bin/../../lib/gcc/pic32mx/4.8.3/../../../../pic32mx/lib/speed/libc.a(ctypef.o)
                0x9d027644                isgraph

.text.islower   0x9d02765c       0x18
 .text.islower  0x9d02765c       0x18 /Applications/microchip/xc32/v2.41/bin/bin/../../lib/gcc/pic32mx/4.8.3/../../../../pic32mx/lib/speed/libc.a(ctypef.o)
                0x9d02765c                islower

.text.isprint   0x9d027674       0x18
 .text.isprint  0x9d027674       0x18 /Applications/microchip/xc32/v2.41/bin/bin/../../lib/gcc/pic32mx/4.8.3/../../../../pic32mx/lib/speed/libc.a(ctypef.o)
                0x9d027674                isprint

.text.ispunct   0x9d02768c       0x18
 .text.ispunct  0x9d02768c       0x18 /Applications/microchip/xc32/v2.41/bin/bin/../../lib/gcc/pic32mx/4.8.3/../../../../pic32mx/lib/speed/libc.a(ctypef.o)
                0x9d02768c                ispunct

.text.isspace   0x9d0276a4       0x18
 .text.isspace  0x9d0276a4       0x18 /Applications/microchip/xc32/v2.41/bin/bin/../../lib/gcc/pic32mx/4.8.3/../../../../pic32mx/lib/speed/libc.a(ctypef.o)
                0x9d0276a4                isspace

.text.isupper   0x9d0276bc       0x18
 .text.isupper  0x9d0276bc       0x18 /Applications/microchip/xc32/v2.41/bin/bin/../../lib/gcc/pic32mx/4.8.3/../../../../pic32mx/lib/speed/libc.a(ctypef.o)
                0x9d0276bc                isupper

.text.isxdigit  0x9d0276d4       0x18
 .text.isxdigit
                0x9d0276d4       0x18 /Applications/microchip/xc32/v2.41/bin/bin/../../lib/gcc/pic32mx/4.8.3/../../../../pic32mx/lib/speed/libc.a(ctypef.o)
                0x9d0276d4                isxdigit

.rodata         0x9d0276ec       0x28
 .rodata        0x9d0276ec       0x14 ../../PLIB2_GIT/PLIB.X/dist/default/production/PLIB.X.a(_LOG.o)
 .rodata        0x9d027700       0x14 ../../PLIB2_GIT/PLIB.X/dist/default/production/PLIB.X.a(string_advance.o)

.rodata         0x9d027714       0x10
 .rodata        0x9d027714        0x8 ../../PLIB2_GIT/PLIB.X/dist/default/production/PLIB.X.a(ble.o)
 .rodata        0x9d02771c        0x8 ../../PLIB2_GIT/PLIB.X/dist/default/production/PLIB.X.a(s34_can.o)

.rodata         0x9d027728       0x10
 .rodata        0x9d027728        0x8 /Applications/microchip/xc32/v2.41/bin/bin/../../lib/gcc/pic32mx/4.8.3/speed/libgcc.a(_floatundisf.o)
 .rodata        0x9d027730        0x8 /Applications/microchip/xc32/v2.41/bin/bin/../../lib/gcc/pic32mx/4.8.3/speed/libgcc.a(floatunsidf.o)

.text._on_reset
                0x9d027738        0x8
 .text._on_reset
                0x9d027738        0x8 /Applications/microchip/xc32/v2.41/bin/bin/../../lib/gcc/pic32mx/4.8.3/../../../../pic32mx/lib/speed/libpic32.a(default-on-reset.o)
                0x9d027738                _on_reset

.text._on_bootstrap
                0x9d027740        0x8
 .text._on_bootstrap
                0x9d027740        0x8 /Applications/microchip/xc32/v2.41/bin/bin/../../lib/gcc/pic32mx/4.8.3/../../../../pic32mx/lib/speed/libpic32.a(default-on-bootstrap.o)
                0x9d027740                _on_bootstrap

.text.isascii   0x9d027748        0x8
 .text.isascii  0x9d027748        0x8 /Applications/microchip/xc32/v2.41/bin/bin/../../lib/gcc/pic32mx/4.8.3/../../../../pic32mx/lib/speed/libc.a(ctypef.o)
                0x9d027748                isascii

.text.toascii   0x9d027750        0x8
 .text.toascii  0x9d027750        0x8 /Applications/microchip/xc32/v2.41/bin/bin/../../lib/gcc/pic32mx/4.8.3/../../../../pic32mx/lib/speed/libc.a(ctypef.o)
                0x9d027750                toascii

.text._tolower  0x9d027758        0x8
 .text._tolower
                0x9d027758        0x8 /Applications/microchip/xc32/v2.41/bin/bin/../../lib/gcc/pic32mx/4.8.3/../../../../pic32mx/lib/speed/libc.a(ctypef.o)
                0x9d027758                _tolower

.text._toupper  0x9d027760        0x8
 .text._toupper
                0x9d027760        0x8 /Applications/microchip/xc32/v2.41/bin/bin/../../lib/gcc/pic32mx/4.8.3/../../../../pic32mx/lib/speed/libc.a(ctypef.o)
                0x9d027760                _toupper

.rodata         0x9d027768        0x8
 .rodata        0x9d027768        0x8 /Applications/microchip/xc32/v2.41/bin/bin/../../lib/gcc/pic32mx/4.8.3/../../../../pic32mx/lib/speed/libm.a(w_pow.o)

.text.getpagesize
                0x9d027770        0x8
 .text.getpagesize
                0x9d027770        0x8 /Applications/microchip/xc32/v2.41/bin/bin/../../lib/gcc/pic32mx/4.8.3/../../../../pic32mx/lib/speed/libpic32.a(sbrk.o)
                0x9d027770                getpagesize

.rodata         0x9d027778        0x8
 .rodata        0x9d027778        0x8 /Applications/microchip/xc32/v2.41/bin/bin/../../lib/gcc/pic32mx/4.8.3/../../../../pic32mx/lib/speed/libpic32.a(isinf.o)

.text%z210      0x00000000        0x0
 .text          0x00000000        0x0 /Applications/microchip/xc32/v2.41/bin/bin/../../lib/gcc/pic32mx/4.8.3/../../../../pic32mx/lib/speed/libe.a(_unorddf2.o)

.text%z211      0x00000000        0x0
 .text          0x00000000        0x0 /Applications/microchip/xc32/v2.41/bin/bin/../../lib/gcc/pic32mx/4.8.3/../../../../pic32mx/lib/speed/libpic32.a(isinf.o)

.text%z212      0x00000000        0x0
 .text          0x00000000        0x0 /Applications/microchip/xc32/v2.41/bin/bin/../../lib/gcc/pic32mx/4.8.3/../../../../pic32mx/lib/speed/libpic32.a(errno.o)

.text%z213      0x00000000        0x0
 .text          0x00000000        0x0 /Applications/microchip/xc32/v2.41/bin/bin/../../lib/gcc/pic32mx/4.8.3/../../../../pic32mx/lib/speed/libpic32.a(sbrk.o)

.text%z214      0x00000000        0x0
 .text          0x00000000        0x0 /Applications/microchip/xc32/v2.41/bin/bin/../../lib/gcc/pic32mx/4.8.3/../../../../pic32mx/lib/speed/libm.a(sigmax.o)

.text%z215      0x00000000        0x0
 .text          0x00000000        0x0 /Applications/microchip/xc32/v2.41/bin/bin/../../lib/gcc/pic32mx/4.8.3/../../../../pic32mx/lib/speed/libm.a(exmul.o)

.text%z216      0x00000000        0x0
 .text          0x00000000        0x0 /Applications/microchip/xc32/v2.41/bin/bin/../../lib/gcc/pic32mx/4.8.3/../../../../pic32mx/lib/speed/libm.a(exdiv.o)

.text%z217      0x00000000        0x0
 .text          0x00000000        0x0 /Applications/microchip/xc32/v2.41/bin/bin/../../lib/gcc/pic32mx/4.8.3/../../../../pic32mx/lib/speed/libm.a(exadd.o)

.text%z218      0x00000000        0x0
 .text          0x00000000        0x0 /Applications/microchip/xc32/v2.41/bin/bin/../../lib/gcc/pic32mx/4.8.3/../../../../pic32mx/lib/speed/libm.a(dpmodf.o)

.text%z219      0x00000000        0x0
 .text          0x00000000        0x0 /Applications/microchip/xc32/v2.41/bin/bin/../../lib/gcc/pic32mx/4.8.3/../../../../pic32mx/lib/speed/libm.a(s_lib_ver.o)

.text%z220      0x00000000        0x0
 .text          0x00000000        0x0 /Applications/microchip/xc32/v2.41/bin/bin/../../lib/gcc/pic32mx/4.8.3/../../../../pic32mx/lib/speed/libm.a(sitofp.o)

.text%z221      0x00000000        0x0
 .text          0x00000000        0x0 /Applications/microchip/xc32/v2.41/bin/bin/../../lib/gcc/pic32mx/4.8.3/../../../../pic32mx/lib/speed/libm.a(litodp.o)

.text%z222      0x00000000        0x0
 .text          0x00000000        0x0 /Applications/microchip/xc32/v2.41/bin/bin/../../lib/gcc/pic32mx/4.8.3/../../../../pic32mx/lib/speed/libm.a(fptoul.o)

.text%z223      0x00000000        0x0
 .text          0x00000000        0x0 /Applications/microchip/xc32/v2.41/bin/bin/../../lib/gcc/pic32mx/4.8.3/../../../../pic32mx/lib/speed/libm.a(fptodp.o)

.text%z224      0x00000000        0x0
 .text          0x00000000        0x0 /Applications/microchip/xc32/v2.41/bin/bin/../../lib/gcc/pic32mx/4.8.3/../../../../pic32mx/lib/speed/libm.a(fpcmp.o)

.text%z225      0x00000000        0x0
 .text          0x00000000        0x0 /Applications/microchip/xc32/v2.41/bin/bin/../../lib/gcc/pic32mx/4.8.3/../../../../pic32mx/lib/speed/libm.a(fp32subadd.o)

.text%z226      0x00000000        0x0
 .text          0x00000000        0x0 /Applications/microchip/xc32/v2.41/bin/bin/../../lib/gcc/pic32mx/4.8.3/../../../../pic32mx/lib/speed/libm.a(fp32mul.o)

.text%z227      0x00000000        0x0
 .text          0x00000000        0x0 /Applications/microchip/xc32/v2.41/bin/bin/../../lib/gcc/pic32mx/4.8.3/../../../../pic32mx/lib/speed/libm.a(fp32div.o)

.text%z228      0x00000000        0x0
 .text          0x00000000        0x0 /Applications/microchip/xc32/v2.41/bin/bin/../../lib/gcc/pic32mx/4.8.3/../../../../pic32mx/lib/speed/libm.a(dptoul.o)

.text%z229      0x00000000        0x0
 .text          0x00000000        0x0 /Applications/microchip/xc32/v2.41/bin/bin/../../lib/gcc/pic32mx/4.8.3/../../../../pic32mx/lib/speed/libm.a(dptofp.o)

.text%z230      0x00000000        0x0
 .text          0x00000000        0x0 /Applications/microchip/xc32/v2.41/bin/bin/../../lib/gcc/pic32mx/4.8.3/../../../../pic32mx/lib/speed/libm.a(dpcmp.o)

.text%z231      0x00000000        0x0
 .text          0x00000000        0x0 /Applications/microchip/xc32/v2.41/bin/bin/../../lib/gcc/pic32mx/4.8.3/../../../../pic32mx/lib/speed/libm.a(dp32subadd.o)

.text%z232      0x00000000        0x0
 .text          0x00000000        0x0 /Applications/microchip/xc32/v2.41/bin/bin/../../lib/gcc/pic32mx/4.8.3/../../../../pic32mx/lib/speed/libm.a(dp32mul.o)

.text%z233      0x00000000        0x0
 .text          0x00000000        0x0 /Applications/microchip/xc32/v2.41/bin/bin/../../lib/gcc/pic32mx/4.8.3/../../../../pic32mx/lib/speed/libm.a(dp32div.o)

.text%z234      0x00000000        0x0
 .text          0x00000000        0x0 /Applications/microchip/xc32/v2.41/bin/bin/../../lib/gcc/pic32mx/4.8.3/../../../../pic32mx/lib/speed/libm.a(w_log.o)

.text%z235      0x00000000        0x0
 .text          0x00000000        0x0 /Applications/microchip/xc32/v2.41/bin/bin/../../lib/gcc/pic32mx/4.8.3/../../../../pic32mx/lib/speed/libm.a(w_pow.o)

.text%z236      0x00000000        0x0
 .text          0x00000000        0x0 /Applications/microchip/xc32/v2.41/bin/bin/../../lib/gcc/pic32mx/4.8.3/../../../../pic32mx/lib/speed/libc.a(strncmp.o)

.text%z237      0x00000000        0x0
 .text          0x00000000        0x0 /Applications/microchip/xc32/v2.41/bin/bin/../../lib/gcc/pic32mx/4.8.3/../../../../pic32mx/lib/speed/libc.a(strchr.o)

.text%z238      0x00000000        0x0
 .text          0x00000000        0x0 /Applications/microchip/xc32/v2.41/bin/bin/../../lib/gcc/pic32mx/4.8.3/../../../../pic32mx/lib/speed/libc.a(ctype.o)

.text%z239      0x00000000        0x0
 .text          0x00000000        0x0 /Applications/microchip/xc32/v2.41/bin/bin/../../lib/gcc/pic32mx/4.8.3/../../../../pic32mx/lib/speed/libc.a(strstr.o)

.text%z240      0x00000000        0x0
 .text          0x00000000        0x0 /Applications/microchip/xc32/v2.41/bin/bin/../../lib/gcc/pic32mx/4.8.3/../../../../pic32mx/lib/speed/libc.a(malloc.o)

.text%z241      0x00000000        0x0
 .text          0x00000000        0x0 /Applications/microchip/xc32/v2.41/bin/bin/../../lib/gcc/pic32mx/4.8.3/../../../../pic32mx/lib/speed/libc.a(ctypef.o)

.text%z242      0x00000000        0x0
 .text          0x00000000        0x0 /Applications/microchip/xc32/v2.41/bin/bin/../../lib/gcc/pic32mx/4.8.3/../../../../pic32mx/lib/speed/libpic32.a(defaultinterrupt.o)

.text%z243      0x00000000        0x0
 .text          0x00000000        0x0 /Applications/microchip/xc32/v2.41/bin/bin/../../lib/gcc/pic32mx/4.8.3/../../../../pic32mx/lib/speed/libpic32.a(default-general-exception-handler.o)

.text%z244      0x00000000        0x0
 .text          0x00000000        0x0 /Applications/microchip/xc32/v2.41/bin/bin/../../lib/gcc/pic32mx/4.8.3/../../../../pic32mx/lib/speed/libpic32.a(vector48.o)

.text%z245      0x00000000        0x0
 .text          0x00000000        0x0 /Applications/microchip/xc32/v2.41/bin/bin/../../lib/gcc/pic32mx/4.8.3/../../../../pic32mx/lib/speed/libpic32.a(vector45.o)

.text%z246      0x00000000        0x0
 .text          0x00000000        0x0 /Applications/microchip/xc32/v2.41/bin/bin/../../lib/gcc/pic32mx/4.8.3/../../../../pic32mx/lib/speed/libpic32.a(vector44.o)

.text%z247      0x00000000        0x0
 .text          0x00000000        0x0 /Applications/microchip/xc32/v2.41/bin/bin/../../lib/gcc/pic32mx/4.8.3/../../../../pic32mx/lib/speed/libpic32.a(vector35.o)

.text%z248      0x00000000        0x0
 .text          0x00000000        0x0 /Applications/microchip/xc32/v2.41/bin/bin/../../lib/gcc/pic32mx/4.8.3/../../../../pic32mx/lib/speed/libpic32.a(vector34.o)

.text%z249      0x00000000        0x0
 .text          0x00000000        0x0 /Applications/microchip/xc32/v2.41/bin/bin/../../lib/gcc/pic32mx/4.8.3/../../../../pic32mx/lib/speed/libpic32.a(vector30.o)

.text%z250      0x00000000        0x0
 .text          0x00000000        0x0 /Applications/microchip/xc32/v2.41/bin/bin/../../lib/gcc/pic32mx/4.8.3/../../../../pic32mx/lib/speed/libpic32.a(vector29.o)

.text%z251      0x00000000        0x0
 .text          0x00000000        0x0 /Applications/microchip/xc32/v2.41/bin/bin/../../lib/gcc/pic32mx/4.8.3/../../../../pic32mx/lib/speed/libpic32.a(vector28.o)

.text%z252      0x00000000        0x0
 .text          0x00000000        0x0 /Applications/microchip/xc32/v2.41/bin/bin/../../lib/gcc/pic32mx/4.8.3/../../../../pic32mx/lib/speed/libpic32.a(vector22.o)

.text%z253      0x00000000        0x0
 .text          0x00000000        0x0 /Applications/microchip/xc32/v2.41/bin/bin/../../lib/gcc/pic32mx/4.8.3/../../../../pic32mx/lib/speed/libpic32.a(vector21.o)

.text%z254      0x00000000        0x0
 .text          0x00000000        0x0 /Applications/microchip/xc32/v2.41/bin/bin/../../lib/gcc/pic32mx/4.8.3/../../../../pic32mx/lib/speed/libpic32.a(vector19.o)

.text%z255      0x00000000        0x0
 .text          0x00000000        0x0 /Applications/microchip/xc32/v2.41/bin/bin/../../lib/gcc/pic32mx/4.8.3/../../../../pic32mx/lib/speed/libpic32.a(vector18.o)

.text%z256      0x00000000        0x0
 .text          0x00000000        0x0 /Applications/microchip/xc32/v2.41/bin/bin/../../lib/gcc/pic32mx/4.8.3/../../../../pic32mx/lib/speed/libpic32.a(vector17.o)

.text%z257      0x00000000        0x0
 .text          0x00000000        0x0 /Applications/microchip/xc32/v2.41/bin/bin/../../lib/gcc/pic32mx/4.8.3/../../../../pic32mx/lib/speed/libpic32.a(vector15.o)

.text%z258      0x00000000        0x0
 .text          0x00000000        0x0 /Applications/microchip/xc32/v2.41/bin/bin/../../lib/gcc/pic32mx/4.8.3/../../../../pic32mx/lib/speed/libpic32.a(vector14.o)

.text%z259      0x00000000        0x0
 .text          0x00000000        0x0 /Applications/microchip/xc32/v2.41/bin/bin/../../lib/gcc/pic32mx/4.8.3/../../../../pic32mx/lib/speed/libpic32.a(vector13.o)

.text%z260      0x00000000        0x0
 .text          0x00000000        0x0 /Applications/microchip/xc32/v2.41/bin/bin/../../lib/gcc/pic32mx/4.8.3/../../../../pic32mx/lib/speed/libpic32.a(vector11.o)

.text%z261      0x00000000        0x0
 .text          0x00000000        0x0 /Applications/microchip/xc32/v2.41/bin/bin/../../lib/gcc/pic32mx/4.8.3/../../../../pic32mx/lib/speed/libpic32.a(vector10.o)

.text%z262      0x00000000        0x0
 .text          0x00000000        0x0 /Applications/microchip/xc32/v2.41/bin/bin/../../lib/gcc/pic32mx/4.8.3/../../../../pic32mx/lib/speed/libpic32.a(vector9.o)

.text%z263      0x00000000        0x0
 .text          0x00000000        0x0 /Applications/microchip/xc32/v2.41/bin/bin/../../lib/gcc/pic32mx/4.8.3/../../../../pic32mx/lib/speed/libpic32.a(vector7.o)

.text%z264      0x00000000        0x0
 .text          0x00000000        0x0 /Applications/microchip/xc32/v2.41/bin/bin/../../lib/gcc/pic32mx/4.8.3/../../../../pic32mx/lib/speed/libpic32.a(vector6.o)

.text%z265      0x00000000        0x0
 .text          0x00000000        0x0 /Applications/microchip/xc32/v2.41/bin/bin/../../lib/gcc/pic32mx/4.8.3/../../../../pic32mx/lib/speed/libpic32.a(vector5.o)

.text%z266      0x00000000        0x0
 .text          0x00000000        0x0 /Applications/microchip/xc32/v2.41/bin/bin/../../lib/gcc/pic32mx/4.8.3/../../../../pic32mx/lib/speed/libpic32.a(vector3.o)

.text%z267      0x00000000        0x0
 .text          0x00000000        0x0 /Applications/microchip/xc32/v2.41/bin/bin/../../lib/gcc/pic32mx/4.8.3/../../../../pic32mx/lib/speed/libpic32.a(vector2.o)

.text%z268      0x00000000        0x0
 .text          0x00000000        0x0 /Applications/microchip/xc32/v2.41/bin/bin/../../lib/gcc/pic32mx/4.8.3/../../../../pic32mx/lib/speed/libpic32.a(vector1.o)

.text%z269      0x00000000        0x0
 .text          0x00000000        0x0 /Applications/microchip/xc32/v2.41/bin/bin/../../lib/gcc/pic32mx/4.8.3/../../../../pic32mx/lib/speed/libpic32.a(vector0.o)

.text%z270      0x00000000        0x0
 .text          0x00000000        0x0 /Applications/microchip/xc32/v2.41/bin/bin/../../lib/gcc/pic32mx/4.8.3/../../../../pic32mx/lib/speed/libpic32.a(general-exception.o)

.text%z271      0x00000000        0x0
 .text          0x00000000        0x0 /Applications/microchip/xc32/v2.41/bin/bin/../../lib/gcc/pic32mx/4.8.3/../../../../pic32mx/lib/speed/libpic32.a(default-on-bootstrap.o)

.text%z272      0x00000000        0x0
 .text          0x00000000        0x0 /Applications/microchip/xc32/v2.41/bin/bin/../../lib/gcc/pic32mx/4.8.3/../../../../pic32mx/lib/speed/libpic32.a(default-on-reset.o)

.text%z273      0x00000000        0x0
 .text          0x00000000        0x0 /Applications/microchip/xc32/v2.41/bin/bin/../../lib/gcc/pic32mx/4.8.3/../../../../pic32mx/lib/speed/libpic32.a(default-bootstrap-exception-handler.o)

.text%z274      0x00000000        0x0
 .text          0x00000000        0x0 /Applications/microchip/xc32/v2.41/bin/bin/../../lib/gcc/pic32mx/4.8.3/../../../../pic32mx/lib/./proc/32MX795F512L/processor.o

.text%z275      0x00000000        0x0
 .text          0x00000000        0x0 /var/folders/nb/nscgpnq50m3_t2k_4gt8dg080000gn/T//ccoIGrQV.o

.text%z276      0x00000000        0x0
 .text          0x00000000        0x0 /var/folders/nb/nscgpnq50m3_t2k_4gt8dg080000gn/T//cc2Byh3D.o

.text%z277      0x00000000        0x0
 .text          0x00000000        0x0 /var/folders/nb/nscgpnq50m3_t2k_4gt8dg080000gn/T//cckU0PY8.o

.text%z278      0x00000000        0x0
 .text          0x00000000        0x0 /Applications/microchip/xc32/v2.41/bin/bin/../../lib/gcc/pic32mx/4.8.3/../../../../pic32mx/lib/speed/debug-exception-return.o
